

Microchip Technology PIC18 LITE Macro Assembler V1.33 build 59893 
                                                                                               Sun Jan 11 20:23:21 2015

Microchip Technology Omniscient Code Generator (Lite mode) build 59893
     1                           	processor	18F4550
     2                           	fnconf	rparam,??,?,0
     3                           	opt	pw 120
     4                           	opt	lm
     5                           	psect	smallconst,global,reloc=2,class=SMALLCONST,delta=1
     6                           	psect	cinit,global,reloc=2,class=CODE,delta=1
     7                           	psect	bssCOMRAM,global,class=COMRAM,space=1,delta=1
     8                           	psect	bssBANK0,global,class=BANK0,space=1,delta=1
     9                           	psect	cstackBANK0,global,class=BANK0,space=1,delta=1
    10                           	psect	cstackCOMRAM,global,class=COMRAM,space=1,delta=1
    11                           	psect	text0,global,reloc=2,class=CODE,delta=1
    12                           	psect	text1,global,reloc=2,class=CODE,delta=1
    13                           	psect	text2,global,reloc=2,class=CODE,delta=1
    14                           	psect	text3,global,reloc=2,class=CODE,delta=1
    15                           	psect	text4,global,reloc=2,class=CODE,delta=1
    16                           	psect	text5,global,reloc=2,class=CODE,delta=1
    17                           	psect	text6,global,reloc=2,class=CODE,delta=1
    18                           	psect	text7,global,reloc=2,class=CODE,delta=1
    19                           	psect	text8,global,reloc=2,class=CODE,delta=1
    20                           	psect	text9,global,reloc=2,class=CODE,delta=1
    21                           	psect	text10,global,reloc=2,class=CODE,delta=1
    22                           	psect	intcodelo,global,reloc=2,class=CODE,delta=1
    23                           	psect	intcode,global,reloc=2,class=CODE,delta=1
    24                           	psect	intcode_body,global,reloc=2,class=CODE,delta=1
    25                           	psect	text13,global,reloc=2,class=CODE,delta=1
    26                           	psect	text14,global,reloc=2,class=CODE,delta=1
    27                           	psect	text15,global,reloc=2,class=CODE,delta=1
    28                           	psect	text16,global,reloc=2,class=CODE,delta=1
    29                           	psect	text17,global,reloc=2,class=CODE,delta=1
    30                           	psect	text18,global,reloc=2,class=CODE,delta=1
    31                           	psect	text19,global,reloc=2,class=CODE,delta=1
    32                           	psect	text20,global,reloc=2,class=CODE,delta=1
    33                           	psect	text21,global,reloc=2,class=CODE,delta=1
    34                           	psect	text22,global,reloc=2,class=CODE,delta=1
    35                           	psect	text23,global,reloc=2,class=CODE,delta=1
    36                           	psect	text24,global,reloc=2,class=CODE,delta=1
    37                           	psect	text25,global,reloc=2,class=CODE,delta=1
    38                           	psect	text26,global,reloc=2,class=CODE,delta=1
    39                           	psect	text27,global,reloc=2,class=CODE,delta=1
    40                           	psect	text28,global,reloc=2,class=CODE,delta=1
    41                           	psect	text29,global,reloc=2,class=CODE,delta=1
    42                           	psect	text30,global,reloc=2,class=CODE,delta=1
    43                           	psect	text31,global,reloc=2,class=CODE,delta=1
    44                           	psect	text32,global,reloc=2,class=CODE,delta=1
    45                           	psect	text33,global,reloc=2,class=CODE,delta=1
    46                           	psect	text34,global,reloc=2,class=CODE,delta=1
    47                           	psect	text35,global,reloc=2,class=CODE,delta=1
    48                           	psect	text36,global,reloc=2,class=CODE,delta=1
    49                           	psect	text37,global,reloc=2,class=CODE,delta=1
    50                           	psect	text38,global,reloc=2,class=CODE,delta=1
    51                           	psect	text39,global,reloc=2,class=CODE,delta=1
    52                           	psect	text40,global,reloc=2,class=CODE,delta=1
    53                           	psect	text41,global,reloc=2,class=CODE,delta=1
    54                           	psect	text42,global,reloc=2,class=CODE,delta=1
    55                           	psect	intsave_regs,global,class=BIGRAM,space=1,delta=1
    56                           	psect	rparam,global,class=COMRAM,space=1,delta=1
    57                           	dabs	1,0x500,64,_ReceivedDataBuffer
    58                           	dabs	1,0x400,32,_BDT
    59                           	dabs	1,0x540,64,_ToSendDataBuffer
    60                           	dabs	1,0x428,8,_CtrlTrfData
    61                           	dabs	1,0x420,8,_SetupPkt
    62  0000                     
    63                           	psect	smallconst
    64  000800                     __psmallconst:
    65                           	opt stack 0
    66  000800  00                 	db	0
    67  000801                     _USB_SD_Ptr:
    68                           	opt stack 0
    69  000801  08E1               	dw	_sd000& (0+65535)
    70  000803  0851               	dw	_sd001& (0+65535)
    71  000805  0809               	dw	_sd002& (0+65535)
    72  000807                     __end_of_USB_SD_Ptr:
    73                           	opt stack 0
    74  000807                     _USB_CD_Ptr:
    75                           	opt stack 0
    76  000807  0889               	dw	_configDescriptor1& (0+65535)
    77  000809                     __end_of_USB_CD_Ptr:
    78                           	opt stack 0
    79  000809                     _sd002:
    80                           	opt stack 0
    81  000809  48                 	db	72
    82  00080A  03                 	db	3
    83  00080B  0053               	dw	83
    84  00080D  0069               	dw	105
    85  00080F  006D               	dw	109
    86  000811  0070               	dw	112
    87  000813  006C               	dw	108
    88  000815  0065               	dw	101
    89  000817  0020               	dw	32
    90  000819  0048               	dw	72
    91  00081B  0049               	dw	73
    92  00081D  0044               	dw	68
    93  00081F  0020               	dw	32
    94  000821  0044               	dw	68
    95  000823  0065               	dw	101
    96  000825  0076               	dw	118
    97  000827  0069               	dw	105
    98  000829  0063               	dw	99
    99  00082B  0065               	dw	101
   100  00082D  0020               	dw	32
   101  00082F  0044               	dw	68
   102  000831  0065               	dw	101
   103  000833  006D               	dw	109
   104  000835  006F               	dw	111
   105  000837  0020               	dw	32
   106  000839  0028               	dw	40
   107  00083B  002D               	dw	45
   108  00083D  003E               	dw	62
   109  00083F  0020               	dw	32
   110  000841  0031               	dw	49
   111  000843  0038               	dw	56
   112  000845  0046               	dw	70
   113  000847  0034               	dw	52
   114  000849  0035               	dw	53
   115  00084B  0035               	dw	53
   116  00084D  0030               	dw	48
   117  00084F  0029               	dw	41
   118  000851                     __end_of_sd002:
   119                           	opt stack 0
   120  000851                     _sd001:
   121                           	opt stack 0
   122  000851  38                 	db	56
   123  000852  03                 	db	3
   124  000853  0041               	dw	65
   125  000855  0020               	dw	32
   126  000857  004D               	dw	77
   127  000859  0069               	dw	105
   128  00085B  0063               	dw	99
   129  00085D  0072               	dw	114
   130  00085F  006F               	dw	111
   131  000861  0063               	dw	99
   132  000863  0068               	dw	104
   133  000865  0069               	dw	105
   134  000867  0070               	dw	112
   135  000869  0020               	dw	32
   136  00086B  0054               	dw	84
   137  00086D  0065               	dw	101
   138  00086F  0063               	dw	99
   139  000871  0068               	dw	104
   140  000873  006E               	dw	110
   141  000875  006F               	dw	111
   142  000877  006C               	dw	108
   143  000879  006F               	dw	111
   144  00087B  0067               	dw	103
   145  00087D  0079               	dw	121
   146  00087F  0020               	dw	32
   147  000881  0049               	dw	73
   148  000883  006E               	dw	110
   149  000885  0063               	dw	99
   150  000887  002E               	dw	46
   151  000889                     __end_of_sd001:
   152                           	opt stack 0
   153  000889                     _configDescriptor1:
   154                           	opt stack 0
   155  000889  09                 	db	9
   156  00088A  02                 	db	2
   157  00088B  29                 	db	41
   158  00088C  00                 	db	0
   159  00088D  01                 	db	1
   160  00088E  01                 	db	1
   161  00088F  00                 	db	0
   162  000890  C0                 	db	192
   163  000891  32                 	db	50
   164  000892  09                 	db	9
   165  000893  04                 	db	4
   166  000894  00                 	db	0
   167  000895  00                 	db	0
   168  000896  02                 	db	2
   169  000897  03                 	db	3
   170  000898  00                 	db	0
   171  000899  00                 	db	0
   172  00089A  00                 	db	0
   173  00089B  09                 	db	9
   174  00089C  21                 	db	33
   175  00089D  11                 	db	17
   176  00089E  01                 	db	1
   177  00089F  00                 	db	0
   178  0008A0  01                 	db	1
   179  0008A1  22                 	db	34
   180  0008A2  1D                 	db	29
   181  0008A3  00                 	db	0
   182  0008A4  07                 	db	7
   183  0008A5  05                 	db	5
   184  0008A6  81                 	db	129
   185  0008A7  03                 	db	3
   186  0008A8  40                 	db	64
   187  0008A9  00                 	db	0
   188  0008AA  01                 	db	1
   189  0008AB  07                 	db	7
   190  0008AC  05                 	db	5
   191  0008AD  01                 	db	1
   192  0008AE  03                 	db	3
   193  0008AF  40                 	db	64
   194  0008B0  00                 	db	0
   195  0008B1  01                 	db	1
   196  0008B2                     __end_of_configDescriptor1:
   197                           	opt stack 0
   198  0008B2                     _hid_rpt01:
   199                           	opt stack 0
   200  0008B2  06                 	db	6
   201  0008B3  00                 	db	0
   202  0008B4  FF                 	db	255
   203  0008B5  09                 	db	9
   204  0008B6  01                 	db	1
   205  0008B7  A1                 	db	161
   206  0008B8  01                 	db	1
   207  0008B9  19                 	db	25
   208  0008BA  01                 	db	1
   209  0008BB  29                 	db	41
   210  0008BC  40                 	db	64
   211  0008BD  15                 	db	21
   212  0008BE  01                 	db	1
   213  0008BF  26                 	db	38
   214  0008C0  FF                 	db	255
   215  0008C1  00                 	db	0
   216  0008C2  75                 	db	117
   217  0008C3  08                 	db	8
   218  0008C4  95                 	db	149
   219  0008C5  40                 	db	64
   220  0008C6  81                 	db	129
   221  0008C7  00                 	db	0
   222  0008C8  19                 	db	25
   223  0008C9  01                 	db	1
   224  0008CA  29                 	db	41
   225  0008CB  40                 	db	64
   226  0008CC  91                 	db	145
   227  0008CD  00                 	db	0
   228  0008CE  C0                 	db	192
   229  0008CF                     __end_of_hid_rpt01:
   230                           	opt stack 0
   231  0008CF                     _device_dsc:
   232                           	opt stack 0
   233  0008CF  12                 	db	18
   234  0008D0  01                 	db	1
   235  0008D1  0200               	dw	512
   236  0008D3  00                 	db	0
   237  0008D4  00                 	db	0
   238  0008D5  00                 	db	0
   239  0008D6  08                 	db	8
   240  0008D7  04D8               	dw	1240
   241  0008D9  003F               	dw	63
   242  0008DB  0002               	dw	2
   243  0008DD  01                 	db	1
   244  0008DE  02                 	db	2
   245  0008DF  00                 	db	0
   246  0008E0  01                 	db	1
   247  0008E1                     __end_of_device_dsc:
   248                           	opt stack 0
   249  0008E1                     _sd000:
   250                           	opt stack 0
   251  0008E1  04                 	db	4
   252  0008E2  03                 	db	3
   253  0008E3  0409               	dw	1033
   254  0008E5                     __end_of_sd000:
   255                           	opt stack 0
   256  0000                     _ADCON0	set	4034
   257  0000                     _ADCON0bits	set	4034
   258  0000                     _ADCON1	set	4033
   259  0000                     _ADCON2	set	4032
   260  0000                     _ADRESH	set	4036
   261  0000                     _ADRESL	set	4035
   262  0000                     _INTCONbits	set	4082
   263  0000                     _IPR2bits	set	4002
   264  0000                     _LATB	set	3978
   265  0000                     _LATBbits	set	3978
   266  0000                     _PIE1bits	set	3997
   267  0000                     _PIE2bits	set	4000
   268  0000                     _PIR1bits	set	3998
   269  0000                     _PIR2bits	set	4001
   270  0000                     _PORTBbits	set	3969
   271  0000                     _RCONbits	set	4048
   272  0000                     _TRISAbits	set	3986
   273  0000                     _TRISB	set	3987
   274  0000                     _TRISBbits	set	3987
   275  0000                     _UADDR	set	3950
   276  0000                     _UCFG	set	3951
   277  0000                     _UCON	set	3949
   278  0000                     _UCONbits	set	3949
   279  0000                     _UEIE	set	3947
   280  0000                     _UEIR	set	3946
   281  0000                     _UEP0bits	set	3952
   282  0000                     _UIE	set	3945
   283  0000                     _UIEbits	set	3945
   284  0000                     _UIR	set	3944
   285  0000                     _UIRbits	set	3944
   286  0000                     _USTAT	set	3948
   287  0000                     _UEP0	set	3952
   288  0000                     _UEP1	set	3953
   289                           
   290                           ; #config settings
   291  0008E5  00                 	db	0	; dummy byte at the end
   292  0000                     
   293                           	psect	cinit
   294  00227C                     __pcinit:
   295                           	opt stack 0
   296  00227C                     start_initialization:
   297                           	opt stack 0
   298  00227C                     __initialization:
   299                           	opt stack 0
   300                           
   301                           ; Clear objects allocated to BANK0 (32 bytes)
   302  00227C  EE00  F060         	lfsr	0,__pbssBANK0
   303  002280  0E20               	movlw	32
   304  002282                     clear_0:
   305  002282  6AEE               	clrf	postinc0,c
   306  002284  06E8               	decf	wreg,f,c
   307  002286  E1FD               	bnz	clear_0
   308                           
   309                           ; Clear objects allocated to COMRAM (27 bytes)
   310  002288  EE00  F034         	lfsr	0,__pbssCOMRAM
   311  00228C  0E1B               	movlw	27
   312  00228E                     clear_1:
   313  00228E  6AEE               	clrf	postinc0,c
   314  002290  06E8               	decf	wreg,f,c
   315  002292  E1FD               	bnz	clear_1
   316  002294                     end_of_initialization:
   317                           	opt stack 0
   318  002294                     __end_of__initialization:
   319                           	opt stack 0
   320  002294  0E00               	movlw	low (__Lmediumconst shr (0+16))
   321  002296  6EF8               	movwf	tblptru,c
   322  002298  0100               	movlb	0
   323  00229A  EF4F  F011         	goto	_main	;jump to C main() function
   324                           tblptru	equ	0xFF8
   325                           postinc0	equ	0xFEE
   326                           wreg	equ	0xFE8
   327                           
   328                           	psect	bssCOMRAM
   329  000034                     __pbssCOMRAM:
   330                           	opt stack 0
   331  000034                     APP_LEDUpdateUSBStatus@ledCount:
   332                           	opt stack 0
   333  000034                     	ds	2
   334  000036                     USBCBSendResume@delay_count:
   335                           	opt stack 0
   336  000036                     	ds	2
   337  000038                     _pBDTEntryEP0OutCurrent:
   338                           	opt stack 0
   339  000038                     	ds	2
   340  00003A                     _pBDTEntryEP0OutNext:
   341                           	opt stack 0
   342  00003A                     	ds	2
   343  00003C                     _pDst:
   344                           	opt stack 0
   345  00003C                     	ds	2
   346  00003E                     _BothEP0OutUOWNsSet:
   347                           	opt stack 0
   348  00003E                     	ds	1
   349  00003F                     _RemoteWakeup:
   350                           	opt stack 0
   351  00003F                     	ds	1
   352  000040                     _USBBusIsSuspended:
   353                           	opt stack 0
   354  000040                     	ds	1
   355  000041                     _USBDeferINDataStagePackets:
   356                           	opt stack 0
   357  000041                     	ds	1
   358  000042                     _USBDeferOUTDataStagePackets:
   359                           	opt stack 0
   360  000042                     	ds	1
   361  000043                     _USBDeferStatusStagePacket:
   362                           	opt stack 0
   363  000043                     	ds	1
   364  000044                     _USBStatusStageEnabledFlag1:
   365                           	opt stack 0
   366  000044                     	ds	1
   367  000045                     _USBStatusStageEnabledFlag2:
   368                           	opt stack 0
   369  000045                     	ds	1
   370  000046                     _USBStatusStageTimeoutCounter:
   371                           	opt stack 0
   372  000046                     	ds	1
   373  000047                     _controlTransferState:
   374                           	opt stack 0
   375  000047                     	ds	1
   376  000048                     _endpoint_number:
   377                           	opt stack 0
   378  000048                     	ds	1
   379  000049                     _shortPacketStatus:
   380                           	opt stack 0
   381  000049                     	ds	1
   382  00004A                     _USBActiveConfiguration:
   383                           	opt stack 0
   384  00004A                     	ds	1
   385  00004B                     _USBAlternateInterface:
   386                           	opt stack 0
   387  00004B                     	ds	1
   388  00004C                     _USTATcopy:
   389                           	opt stack 0
   390  00004C                     	ds	1
   391  00004D                     _active_protocol:
   392                           	opt stack 0
   393  00004D                     	ds	1
   394  00004E                     _idle_rate:
   395                           	opt stack 0
   396  00004E                     	ds	1
   397                           tblptru	equ	0xFF8
   398                           postinc0	equ	0xFEE
   399                           wreg	equ	0xFE8
   400                           
   401                           	psect	bssBANK0
   402  000060                     __pbssBANK0:
   403                           	opt stack 0
   404  000060                     _outPipes:
   405                           	opt stack 0
   406  000060                     	ds	8
   407  000068                     _pBDTEntryIn:
   408                           	opt stack 0
   409  000068                     	ds	4
   410  00006C                     _pBDTEntryOut:
   411                           	opt stack 0
   412  00006C                     	ds	4
   413  000070                     _USBInHandle:
   414                           	opt stack 0
   415  000070                     	ds	2
   416  000072                     _USBOutHandle:
   417                           	opt stack 0
   418  000072                     	ds	2
   419  000074                     _ep_data_in:
   420                           	opt stack 0
   421  000074                     	ds	2
   422  000076                     _ep_data_out:
   423                           	opt stack 0
   424  000076                     	ds	2
   425  000078                     _USBDeviceState:
   426                           	opt stack 0
   427  000078                     	ds	1
   428  000079                     __doTransmit:
   429                           	opt stack 0
   430  000079                     	ds	1
   431  00007A                     _inPipes:
   432                           	opt stack 0
   433  00007A                     	ds	6
   434                           tblptru	equ	0xFF8
   435                           postinc0	equ	0xFEE
   436                           wreg	equ	0xFE8
   437                           
   438                           	psect	cstackBANK0
   439  000080                     __pcstackBANK0:
   440                           	opt stack 0
   441  000080                     USBCtrlEPService@setup_cnt:
   442                           	opt stack 0
   443                           
   444                           ; 1 bytes @ 0x0
   445  000080                     	ds	1
   446  000081                     USBDeviceTasks@i:
   447                           	opt stack 0
   448                           
   449                           ; 1 bytes @ 0x1
   450  000081                     	ds	1
   451  000082                     ??_SYS_InterruptHigh:
   452                           
   453                           ; 0 bytes @ 0x2
   454  000082                     	ds	14
   455  000090                     ?_USBTransferOnePacket:
   456                           	opt stack 0
   457  000090                     USBTransferOnePacket@dir:
   458                           	opt stack 0
   459  000090                     OpenADC@config2:
   460                           	opt stack 0
   461  000090                     memset@p1:
   462                           	opt stack 0
   463                           
   464                           ; 2 bytes @ 0x10
   465  000090                     	ds	1
   466  000091                     OpenADC@portconfig:
   467                           	opt stack 0
   468  000091                     USBTransferOnePacket@data:
   469                           	opt stack 0
   470                           
   471                           ; 2 bytes @ 0x11
   472  000091                     	ds	1
   473  000092                     ??_OpenADC:
   474  000092                     memset@c:
   475                           	opt stack 0
   476                           
   477                           ; 2 bytes @ 0x12
   478  000092                     	ds	1
   479  000093                     USBTransferOnePacket@len:
   480                           	opt stack 0
   481                           
   482                           ; 1 bytes @ 0x13
   483  000093                     	ds	1
   484  000094                     USBTransferOnePacket@ep:
   485                           	opt stack 0
   486  000094                     OpenADC@config:
   487                           	opt stack 0
   488  000094                     memset@n:
   489                           	opt stack 0
   490                           
   491                           ; 2 bytes @ 0x14
   492  000094                     	ds	1
   493  000095                     SYSTEM_Initialize@state:
   494                           	opt stack 0
   495  000095                     USBTransferOnePacket@handle:
   496                           	opt stack 0
   497                           
   498                           ; 2 bytes @ 0x15
   499  000095                     	ds	1
   500  000096                     memset@p:
   501                           	opt stack 0
   502                           
   503                           ; 2 bytes @ 0x16
   504  000096                     	ds	2
   505  000098                     ??_APP_CustomHIDTasks:
   506  000098                     USBDeviceInit@i:
   507                           	opt stack 0
   508                           
   509                           ; 1 bytes @ 0x18
   510  000098                     	ds	1
   511  000099                     _APP_CustomHIDTasks$326:
   512                           	opt stack 0
   513                           
   514                           ; 2 bytes @ 0x19
   515  000099                     	ds	2
   516  00009B                     _APP_CustomHIDTasks$376:
   517                           	opt stack 0
   518                           
   519                           ; 2 bytes @ 0x1B
   520  00009B                     	ds	2
   521  00009D                     tblptru	equ	0xFF8
   522                           postinc0	equ	0xFEE
   523                           wreg	equ	0xFE8
   524                           
   525                           ; 0 bytes @ 0x1D
   526                           
   527                           	psect	cstackCOMRAM
   528  000001                     __pcstackCOMRAM:
   529                           	opt stack 0
   530  000001                     ??_SYS_InterruptLow:
   531  000001                     
   532                           ; 1 bytes @ 0x0
   533  000001                     	ds	17
   534  000012                     ??_USBCheckHIDRequest:
   535  000012                     ??_USBStdGetDscHandler:
   536  000012                     ??_USBStdGetStatusHandler:
   537  000012                     ?i2_USBTransferOnePacket:
   538                           	opt stack 0
   539  000012                     USBConfigureEndpoint@direction:
   540                           	opt stack 0
   541  000012                     USBCtrlTrfTxService@byteToSend:
   542                           	opt stack 0
   543  000012                     USBCtrlTrfRxService@i:
   544                           	opt stack 0
   545  000012                     i2USBTransferOnePacket@dir:
   546                           	opt stack 0
   547  000012                     i2memset@p1:
   548                           	opt stack 0
   549                           
   550                           ; 2 bytes @ 0x11
   551  000012                     	ds	1
   552  000013                     ??_USBConfigureEndpoint:
   553  000013                     USBCtrlTrfRxService@byteToRead:
   554                           	opt stack 0
   555  000013                     USBCtrlTrfInHandler@lastDTS:
   556                           	opt stack 0
   557  000013                     USBStdGetStatusHandler@p:
   558                           	opt stack 0
   559  000013                     i2USBTransferOnePacket@data:
   560                           	opt stack 0
   561                           
   562                           ; 2 bytes @ 0x12
   563  000013                     	ds	1
   564  000014                     i2memset@c:
   565                           	opt stack 0
   566                           
   567                           ; 2 bytes @ 0x13
   568  000014                     	ds	1
   569  000015                     i2USBTransferOnePacket@len:
   570                           	opt stack 0
   571                           
   572                           ; 1 bytes @ 0x14
   573  000015                     	ds	1
   574  000016                     i2USBTransferOnePacket@ep:
   575                           	opt stack 0
   576  000016                     i2memset@n:
   577                           	opt stack 0
   578                           
   579                           ; 2 bytes @ 0x15
   580  000016                     	ds	1
   581  000017                     USBConfigureEndpoint@EPNum:
   582                           	opt stack 0
   583  000017                     i2USBTransferOnePacket@handle:
   584                           	opt stack 0
   585                           
   586                           ; 2 bytes @ 0x16
   587  000017                     	ds	1
   588  000018                     USBConfigureEndpoint@handle:
   589                           	opt stack 0
   590  000018                     i2memset@p:
   591                           	opt stack 0
   592                           
   593                           ; 2 bytes @ 0x17
   594  000018                     	ds	2
   595  00001A                     USBEnableEndpoint@options:
   596                           	opt stack 0
   597  00001A                     i2USBDeviceInit@i:
   598                           	opt stack 0
   599                           
   600                           ; 1 bytes @ 0x19
   601  00001A                     	ds	1
   602  00001B                     ??_USBEnableEndpoint:
   603                           
   604                           ; 0 bytes @ 0x1A
   605  00001B                     	ds	2
   606  00001D                     USBEnableEndpoint@p:
   607                           	opt stack 0
   608                           
   609                           ; 2 bytes @ 0x1C
   610  00001D                     	ds	2
   611  00001F                     USBEnableEndpoint@ep:
   612                           	opt stack 0
   613                           
   614                           ; 1 bytes @ 0x1E
   615  00001F                     	ds	1
   616  000020                     USER_USB_CALLBACK_EVENT_HANDLER@event:
   617                           	opt stack 0
   618                           
   619                           ; 2 bytes @ 0x1F
   620  000020                     	ds	2
   621  000022                     USER_USB_CALLBACK_EVENT_HANDLER@pdata:
   622                           	opt stack 0
   623                           
   624                           ; 2 bytes @ 0x21
   625  000022                     	ds	2
   626  000024                     USER_USB_CALLBACK_EVENT_HANDLER@size:
   627                           	opt stack 0
   628                           
   629                           ; 2 bytes @ 0x23
   630  000024                     	ds	2
   631  000026                     ??_USER_USB_CALLBACK_EVENT_HANDLER:
   632                           
   633                           ; 0 bytes @ 0x25
   634  000026                     	ds	2
   635  000028                     ??_USBStdFeatureReqHandler:
   636  000028                     USBStdSetCfgHandler@i:
   637                           	opt stack 0
   638                           
   639                           ; 1 bytes @ 0x27
   640  000028                     	ds	3
   641  00002B                     USBStdFeatureReqHandler@pUEP:
   642                           	opt stack 0
   643                           
   644                           ; 2 bytes @ 0x2A
   645  00002B                     	ds	2
   646  00002D                     USBStdFeatureReqHandler@current_ep_data:
   647                           	opt stack 0
   648                           
   649                           ; 1 bytes @ 0x2C
   650  00002D                     	ds	1
   651  00002E                     USBStdFeatureReqHandler@p:
   652                           	opt stack 0
   653                           
   654                           ; 2 bytes @ 0x2D
   655  00002E                     	ds	2
   656  000030                     ??_USBCheckStdRequest:
   657                           
   658                           ; 0 bytes @ 0x2F
   659  000030                     	ds	2
   660  000032                     ??_USBCtrlEPService:
   661  000032                     
   662                           ; 0 bytes @ 0x31
   663  000032                     	ds	2
   664  000034                     tblptru	equ	0xFF8
   665                           postinc0	equ	0xFEE
   666                           wreg	equ	0xFE8
   667                           
   668                           ; 0 bytes @ 0x33
   669 ;;
   670 ;;Main: autosize = 0, tempsize = 0, incstack = 0, save=0
   671 ;;
   672 ;; *************** function _main *****************
   673 ;; Defined at:
   674 ;;		line 50 in file "../src/main_hid.c"
   675 ;; Parameters:    Size  Location     Type
   676 ;;		None
   677 ;; Auto vars:     Size  Location     Type
   678 ;;		None
   679 ;; Return value:  Size  Location     Type
   680 ;;		None               void
   681 ;; Registers used:
   682 ;;		wreg, fsr2l, fsr2h, status,2, status,0, prodl, prodh, cstack
   683 ;; Tracked objects:
   684 ;;		On entry : 0/0
   685 ;;		On exit  : 0/0
   686 ;;		Unchanged: 0/0
   687 ;; Data sizes:     COMRAM   BANK0   BANK1   BANK2   BANK3   BANK4   BANK5   BANK6   BANK7
   688 ;;      Params:         0       0       0       0       0       0       0       0       0
   689 ;;      Locals:         0       0       0       0       0       0       0       0       0
   690 ;;      Temps:          0       0       0       0       0       0       0       0       0
   691 ;;      Totals:         0       0       0       0       0       0       0       0       0
   692 ;;Total ram usage:        0 bytes
   693 ;; Hardware stack levels required when called:   14
   694 ;; This function calls:
   695 ;;		_APP_CustomHIDTasks
   696 ;;		_SYSTEM_Initialize
   697 ;;		_USBDeviceAttach
   698 ;;		_USBDeviceInit
   699 ;; This function is called by:
   700 ;;		Startup code after reset
   701 ;; This function uses a non-reentrant model
   702 ;;
   703                           
   704                           	psect	text0
   705  00229E                     __ptext0:
   706                           	opt stack 0
   707  00229E                     _main:
   708                           	opt stack 17
   709                           
   710                           ;main_hid.c: 52: SYSTEM_Initialize(SYSTEM_STATE_USB_START);
   711                           
   712                           ;incstack = 0
   713  00229E  0E00               	movlw	0
   714  0022A0  ECE5  F010         	call	_SYSTEM_Initialize
   715                           
   716                           ;main_hid.c: 54: USBDeviceInit();
   717  0022A4  ECA4  F006         	call	_USBDeviceInit	;wreg free
   718                           
   719                           ;main_hid.c: 56: USBDeviceAttach();
   720  0022A8  ECCC  F010         	call	_USBDeviceAttach	;wreg free
   721  0022AC                     l3678:
   722                           
   723                           ;main_hid.c: 60: {
   724                           ;main_hid.c: 61: ;
   725                           ;main_hid.c: 82: if( USBDeviceState < CONFIGURED_STATE ){
   726  0022AC  0E20               	movlw	32
   727  0022AE  0100               	movlb	0	; () banked
   728  0022B0  5D78               	subwf	_USBDeviceState& (0+255),w,b	;volatile
   729  0022B2  B0D8               	btfsc	status,0,c
   730                           
   731                           ; BSR set to: 0
   732                           ;main_hid.c: 85: }
   733                           ;main_hid.c: 91: if( UCONbits.SUSPND == 1 ){
   734                           
   735                           ; BSR set to: 0
   736                           ;main_hid.c: 84: continue;
   737  0022B4  B26D               	btfsc	3949,1,c	;volatile
   738  0022B6  D7FA               	goto	l3678
   739                           
   740                           ; BSR set to: 0
   741                           ;main_hid.c: 94: }
   742                           ;main_hid.c: 97: APP_CustomHIDTasks();
   743                           
   744                           ; BSR set to: 0
   745                           
   746                           ; BSR set to: 0
   747                           ;main_hid.c: 93: continue;
   748  0022B8  ECD0  F005         	call	_APP_CustomHIDTasks	;wreg free
   749  0022BC  D7F7               	goto	l3678
   750  0022BE                     __end_of_main:
   751                           	opt stack 0
   752                           tblptru	equ	0xFF8
   753                           postinc0	equ	0xFEE
   754                           wreg	equ	0xFE8
   755                           status	equ	0xFD8
   756                           
   757 ;; *************** function _USBDeviceInit *****************
   758 ;; Defined at:
   759 ;;		line 298 in file "../src/usb/src/usb_device.c"
   760 ;; Parameters:    Size  Location     Type
   761 ;;		None
   762 ;; Auto vars:     Size  Location     Type
   763 ;;  i               1   24[BANK0 ] unsigned char 
   764 ;; Return value:  Size  Location     Type
   765 ;;		None               void
   766 ;; Registers used:
   767 ;;		wreg, fsr2l, fsr2h, status,2, status,0, prodl, prodh, cstack
   768 ;; Tracked objects:
   769 ;;		On entry : 0/0
   770 ;;		On exit  : 0/0
   771 ;;		Unchanged: 0/0
   772 ;; Data sizes:     COMRAM   BANK0   BANK1   BANK2   BANK3   BANK4   BANK5   BANK6   BANK7
   773 ;;      Params:         0       0       0       0       0       0       0       0       0
   774 ;;      Locals:         0       1       0       0       0       0       0       0       0
   775 ;;      Temps:          0       0       0       0       0       0       0       0       0
   776 ;;      Totals:         0       1       0       0       0       0       0       0       0
   777 ;;Total ram usage:        1 bytes
   778 ;; Hardware stack levels used:    1
   779 ;; Hardware stack levels required when called:   12
   780 ;; This function calls:
   781 ;;		_memset
   782 ;; This function is called by:
   783 ;;		_main
   784 ;; This function uses a non-reentrant model
   785 ;;
   786                           
   787                           	psect	text1
   788  000D48                     __ptext1:
   789                           	opt stack 0
   790  000D48                     _USBDeviceInit:
   791                           	opt stack 18
   792                           
   793                           ;usb_device.c: 300: uint8_t i;
   794                           ;usb_device.c: 302: {PIE2bits.USBIE = 0;};
   795                           
   796                           ;incstack = 0
   797  000D48  9AA0               	bcf	4000,5,c	;volatile
   798                           
   799                           ;usb_device.c: 305: {UEIR = 0;};
   800  000D4A  0E00               	movlw	0
   801  000D4C  6E6A               	movwf	3946,c	;volatile
   802                           
   803                           ;usb_device.c: 308: {UIR = 0;};
   804  000D4E  0E00               	movlw	0
   805  000D50  6E68               	movwf	3944,c	;volatile
   806                           
   807                           ;usb_device.c: 311: UEP0 = 0;
   808  000D52  0E00               	movlw	0
   809  000D54  6E70               	movwf	3952,c	;volatile
   810                           
   811                           ;usb_device.c: 313: memset((void*)&UEP1,0x00,(1));;
   812  000D56  0E0F               	movlw	15	;volatile
   813  000D58  0100               	movlb	0	; () banked
   814  000D5A  6F91               	movwf	(memset@p1+1)& (0+255),b
   815  000D5C  0E71               	movlw	113	;volatile
   816  000D5E  0100               	movlb	0	; () banked
   817  000D60  6F90               	movwf	memset@p1& (0+255),b
   818  000D62  0E00               	movlw	0
   819  000D64  0100               	movlb	0	; () banked
   820  000D66  6F93               	movwf	(memset@c+1)& (0+255),b
   821  000D68  0E00               	movlw	0
   822  000D6A  0100               	movlb	0	; () banked
   823  000D6C  6F92               	movwf	memset@c& (0+255),b
   824  000D6E  0E00               	movlw	0
   825  000D70  0100               	movlb	0	; () banked
   826  000D72  6F95               	movwf	(memset@n+1)& (0+255),b
   827  000D74  0E01               	movlw	1
   828  000D76  0100               	movlb	0	; () banked
   829  000D78  6F94               	movwf	memset@n& (0+255),b
   830  000D7A  ECB0  F010         	call	_memset	;wreg free
   831                           
   832                           ;usb_device.c: 315: { UCFG = 0x10 | 0x00 | 0x04 | 0x02; UEIE = 0x9F; UIE = 0x39 | 0x40 |
      +                           0x02; };
   833  000D7E  0E16               	movlw	22
   834  000D80  6E6F               	movwf	3951,c	;volatile
   835  000D82  0E9F               	movlw	159
   836  000D84  6E6B               	movwf	3947,c	;volatile
   837  000D86  0E7B               	movlw	123
   838  000D88  6E69               	movwf	3945,c	;volatile
   839                           
   840                           ;usb_device.c: 318: ;
   841                           ;usb_device.c: 321: ;
   842                           ;usb_device.c: 324: for(i=0;i<(sizeof(BDT)/sizeof(BDT_ENTRY));i++)
   843  000D8A  0E00               	movlw	0
   844  000D8C  0100               	movlb	0	; () banked
   845  000D8E  6F98               	movwf	USBDeviceInit@i& (0+255),b
   846  000D90  D011               	goto	L1
   847  000D92                     l3446:
   848                           
   849                           ; BSR set to: 0
   850                           ;usb_device.c: 325: {
   851                           ;usb_device.c: 326: BDT[i].Val = 0x00;
   852  000D92  0100               	movlb	0	; () banked
   853  000D94  5198               	movf	USBDeviceInit@i& (0+255),w,b
   854  000D96  0D04               	mullw	4
   855  000D98  0104               	movlb	4	; () banked
   856  000D9A  0E00               	movlw	0	;volatile
   857  000D9C  24F3               	addwf	prodl,w,c
   858  000D9E  6ED9               	movwf	fsr2l,c
   859  000DA0  0104               	movlb	4	; () banked
   860  000DA2  0E04               	movlw	4	;volatile
   861  000DA4  20F4               	addwfc	prodh,w,c
   862  000DA6  6EDA               	movwf	fsr2h,c
   863  000DA8  6ADE               	clrf	postinc2,c
   864  000DAA  6ADE               	clrf	postinc2,c
   865  000DAC  6ADE               	clrf	postinc2,c
   866  000DAE  6ADD               	clrf	postdec2,c
   867                           
   868                           ; BSR set to: 4
   869  000DB0  0100               	movlb	0	; () banked
   870  000DB2  2B98               	incf	USBDeviceInit@i& (0+255),f,b
   871  000DB4                     L1:
   872                           
   873                           ; BSR set to: 0
   874  000DB4  0E07               	movlw	7
   875  000DB6  0100               	movlb	0	; () banked
   876  000DB8  6598               	cpfsgt	USBDeviceInit@i& (0+255),b
   877  000DBA  D7EB               	goto	l3446
   878                           
   879                           ; BSR set to: 0
   880                           ;usb_device.c: 327: }
   881                           ;usb_device.c: 330: UCONbits.PPBRST = 1;
   882  000DBC  8C6D               	bsf	3949,6,c	;volatile
   883                           
   884                           ; BSR set to: 0
   885                           ;usb_device.c: 333: UADDR = 0x00;
   886  000DBE  0E00               	movlw	0
   887  000DC0  6E6E               	movwf	3950,c	;volatile
   888                           
   889                           ; BSR set to: 0
   890                           ;usb_device.c: 336: UCONbits.PKTDIS = 0;
   891  000DC2  986D               	bcf	3949,4,c	;volatile
   892                           
   893                           ; BSR set to: 0
   894                           ;usb_device.c: 339: UCONbits.PPBRST = 0;
   895  000DC4  9C6D               	bcf	3949,6,c	;volatile
   896                           
   897                           ;usb_device.c: 342: while(UIRbits.TRNIF == 1)
   898  000DC6  D00D               	goto	l3466
   899  000DC8                     l3458:
   900                           
   901                           ; BSR set to: 0
   902                           ;usb_device.c: 343: {
   903                           ;usb_device.c: 344: (UIR &= 0xF7);
   904  000DC8  9668               	bcf	3944,3,c	;volatile
   905                           
   906                           ; BSR set to: 0
   907                           ;usb_device.c: 346: inPipes[0].info.Val = 0;
   908  000DCA  0E00               	movlw	0
   909  000DCC  0100               	movlb	0	; () banked
   910  000DCE  6F7D               	movwf	(_inPipes+3)& (0+255),b	;volatile
   911                           
   912                           ; BSR set to: 0
   913                           ;usb_device.c: 347: outPipes[0].info.Val = 0;
   914  000DD0  0E00               	movlw	0
   915  000DD2  0100               	movlb	0	; () banked
   916  000DD4  6F63               	movwf	(_outPipes+3)& (0+255),b	;volatile
   917                           
   918                           ; BSR set to: 0
   919                           ;usb_device.c: 348: outPipes[0].wCount.Val = 0;
   920  000DD6  0E00               	movlw	0
   921  000DD8  0100               	movlb	0	; () banked
   922  000DDA  6F65               	movwf	(_outPipes+5)& (0+255),b	;volatile
   923  000DDC  0E00               	movlw	0
   924  000DDE  0100               	movlb	0	; () banked
   925  000DE0  6F64               	movwf	(_outPipes+4)& (0+255),b	;volatile
   926  000DE2                     l3466:
   927                           
   928                           ; BSR set to: 0
   929  000DE2  B668               	btfsc	3944,3,c	;volatile
   930  000DE4  D7F1               	goto	l3458
   931                           
   932                           ; BSR set to: 0
   933                           ;usb_device.c: 349: }
   934                           ;usb_device.c: 353: USBStatusStageEnabledFlag1 = 1;
   935                           
   936                           ; BSR set to: 0
   937  000DE6  0E01               	movlw	1
   938  000DE8  6E44               	movwf	_USBStatusStageEnabledFlag1,c	;volatile
   939                           
   940                           ;usb_device.c: 354: USBStatusStageEnabledFlag2 = 1;
   941  000DEA  0E01               	movlw	1
   942  000DEC  6E45               	movwf	_USBStatusStageEnabledFlag2,c	;volatile
   943                           
   944                           ;usb_device.c: 356: USBDeferINDataStagePackets = 0;
   945  000DEE  0E00               	movlw	0
   946  000DF0  6E41               	movwf	_USBDeferINDataStagePackets,c	;volatile
   947                           
   948                           ;usb_device.c: 357: USBDeferOUTDataStagePackets = 0;
   949  000DF2  0E00               	movlw	0
   950  000DF4  6E42               	movwf	_USBDeferOUTDataStagePackets,c	;volatile
   951                           
   952                           ;usb_device.c: 358: USBBusIsSuspended = 0;
   953  000DF6  0E00               	movlw	0
   954  000DF8  6E40               	movwf	_USBBusIsSuspended,c	;volatile
   955                           
   956                           ;usb_device.c: 362: for(i = 0; i < (uint8_t)(1+1u); i++)
   957  000DFA  0E00               	movlw	0
   958  000DFC  0100               	movlb	0	; () banked
   959  000DFE  6F98               	movwf	USBDeviceInit@i& (0+255),b
   960  000E00  D03A               	goto	L2
   961  000E02                     l3474:
   962                           
   963                           ; BSR set to: 0
   964                           ;usb_device.c: 363: {
   965                           ;usb_device.c: 364: pBDTEntryIn[i] = 0u;
   966  000E02  0100               	movlb	0	; () banked
   967  000E04  5198               	movf	USBDeviceInit@i& (0+255),w,b
   968  000E06  0D02               	mullw	2
   969  000E08  0100               	movlb	0	; () banked
   970  000E0A  0E68               	movlw	low _pBDTEntryIn
   971  000E0C  24F3               	addwf	prodl,w,c
   972  000E0E  6ED9               	movwf	fsr2l,c
   973  000E10  0100               	movlb	0	; () banked
   974  000E12  0E00               	movlw	high _pBDTEntryIn
   975  000E14  20F4               	addwfc	prodh,w,c
   976  000E16  6EDA               	movwf	fsr2h,c
   977  000E18  0E00               	movlw	0
   978  000E1A  6EDE               	movwf	postinc2,c
   979  000E1C  0E00               	movlw	0
   980  000E1E  6EDD               	movwf	postdec2,c
   981                           
   982                           ;usb_device.c: 365: pBDTEntryOut[i] = 0u;
   983  000E20  0100               	movlb	0	; () banked
   984  000E22  5198               	movf	USBDeviceInit@i& (0+255),w,b
   985  000E24  0D02               	mullw	2
   986  000E26  0100               	movlb	0	; () banked
   987  000E28  0E6C               	movlw	low _pBDTEntryOut
   988  000E2A  24F3               	addwf	prodl,w,c
   989  000E2C  6ED9               	movwf	fsr2l,c
   990  000E2E  0100               	movlb	0	; () banked
   991  000E30  0E00               	movlw	high _pBDTEntryOut
   992  000E32  20F4               	addwfc	prodh,w,c
   993  000E34  6EDA               	movwf	fsr2h,c
   994  000E36  0E00               	movlw	0
   995  000E38  6EDE               	movwf	postinc2,c
   996  000E3A  0E00               	movlw	0
   997  000E3C  6EDD               	movwf	postdec2,c
   998                           
   999                           ;usb_device.c: 366: ep_data_in[i].Val = 0u;
  1000  000E3E  0100               	movlb	0	; () banked
  1001  000E40  5198               	movf	USBDeviceInit@i& (0+255),w,b
  1002  000E42  0D01               	mullw	1
  1003  000E44  0100               	movlb	0	; () banked
  1004  000E46  0E74               	movlw	low _ep_data_in	;volatile
  1005  000E48  24F3               	addwf	prodl,w,c
  1006  000E4A  6ED9               	movwf	fsr2l,c
  1007  000E4C  0100               	movlb	0	; () banked
  1008  000E4E  0E00               	movlw	high _ep_data_in	;volatile
  1009  000E50  20F4               	addwfc	prodh,w,c
  1010  000E52  6EDA               	movwf	fsr2h,c
  1011  000E54  0E00               	movlw	0
  1012  000E56  6EDF               	movwf	indf2,c
  1013                           
  1014                           ;usb_device.c: 367: ep_data_out[i].Val = 0u;
  1015  000E58  0100               	movlb	0	; () banked
  1016  000E5A  5198               	movf	USBDeviceInit@i& (0+255),w,b
  1017  000E5C  0D01               	mullw	1
  1018  000E5E  0100               	movlb	0	; () banked
  1019  000E60  0E76               	movlw	low _ep_data_out	;volatile
  1020  000E62  24F3               	addwf	prodl,w,c
  1021  000E64  6ED9               	movwf	fsr2l,c
  1022  000E66  0100               	movlb	0	; () banked
  1023  000E68  0E00               	movlw	high _ep_data_out	;volatile
  1024  000E6A  20F4               	addwfc	prodh,w,c
  1025  000E6C  6EDA               	movwf	fsr2h,c
  1026  000E6E  0E00               	movlw	0
  1027  000E70  6EDF               	movwf	indf2,c
  1028                           
  1029                           ; BSR set to: 0
  1030  000E72  0100               	movlb	0	; () banked
  1031  000E74  2B98               	incf	USBDeviceInit@i& (0+255),f,b
  1032  000E76                     L2:
  1033                           
  1034                           ; BSR set to: 0
  1035  000E76  0E01               	movlw	1
  1036  000E78  0100               	movlb	0	; () banked
  1037  000E7A  6598               	cpfsgt	USBDeviceInit@i& (0+255),b
  1038  000E7C  D7C2               	goto	l3474
  1039                           
  1040                           ; BSR set to: 0
  1041                           ;usb_device.c: 368: }
  1042                           ;usb_device.c: 371: pBDTEntryIn[0] = (volatile BDT_ENTRY*)&BDT[2];
  1043                           
  1044                           ; BSR set to: 0
  1045  000E7E  0104               	movlb	4	; () banked
  1046  000E80  0E04               	movlw	4	;volatile
  1047  000E82  0100               	movlb	0	; () banked
  1048  000E84  6F69               	movwf	(_pBDTEntryIn+1)& (0+255),b
  1049  000E86  0104               	movlb	4	; () banked
  1050  000E88  0E08               	movlw	8	;volatile
  1051  000E8A  0100               	movlb	0	; () banked
  1052  000E8C  6F68               	movwf	_pBDTEntryIn& (0+255),b
  1053                           
  1054                           ; BSR set to: 0
  1055                           ;usb_device.c: 373: UEP0 = 0x06|0x10;
  1056  000E8E  0E16               	movlw	22
  1057  000E90  6E70               	movwf	3952,c	;volatile
  1058                           
  1059                           ; BSR set to: 0
  1060                           ;usb_device.c: 375: BDT[0].ADR = ((uint16_t)(&SetupPkt));
  1061  000E92  0E04               	movlw	4
  1062  000E94  0104               	movlb	4	; () banked
  1063  000E96  6F03               	movwf	3,b	;volatile
  1064  000E98  0E20               	movlw	32
  1065  000E9A  0104               	movlb	4	; () banked
  1066  000E9C  6F02               	movwf	2,b	;volatile
  1067                           
  1068                           ; BSR set to: 4
  1069                           ;usb_device.c: 376: BDT[0].CNT = 8;
  1070  000E9E  0E08               	movlw	8
  1071  000EA0  0104               	movlb	4	; () banked
  1072  000EA2  6F01               	movwf	1,b	;volatile
  1073                           
  1074                           ; BSR set to: 4
  1075                           ;usb_device.c: 377: BDT[0].STAT.Val = 0x00|0x04;
  1076  000EA4  0E04               	movlw	4
  1077  000EA6  0104               	movlb	4	; () banked
  1078  000EA8  6F00               	movwf	0,b	;volatile
  1079                           
  1080                           ; BSR set to: 4
  1081                           ;usb_device.c: 378: BDT[0].STAT.Val |= 0x80;
  1082  000EAA  0104               	movlb	4	; () banked
  1083  000EAC  8F00               	bsf	0,7,b	;volatile
  1084                           
  1085                           ; BSR set to: 4
  1086                           ;usb_device.c: 381: USBActiveConfiguration = 0;
  1087  000EAE  0E00               	movlw	0
  1088  000EB0  6E4A               	movwf	_USBActiveConfiguration,c	;volatile
  1089                           
  1090                           ; BSR set to: 4
  1091                           ;usb_device.c: 384: USBDeviceState = DETACHED_STATE;
  1092  000EB2  0E00               	movlw	0
  1093  000EB4  0100               	movlb	0	; () banked
  1094  000EB6  6F78               	movwf	_USBDeviceState& (0+255),b	;volatile
  1095                           
  1096                           ; BSR set to: 0
  1097  000EB8  0012               	return	
  1098  000EBA                     __end_of_USBDeviceInit:
  1099                           	opt stack 0
  1100                           tblptru	equ	0xFF8
  1101                           prodh	equ	0xFF4
  1102                           prodl	equ	0xFF3
  1103                           postinc0	equ	0xFEE
  1104                           wreg	equ	0xFE8
  1105                           indf2	equ	0xFDF
  1106                           postinc2	equ	0xFDE
  1107                           postdec2	equ	0xFDD
  1108                           fsr2h	equ	0xFDA
  1109                           fsr2l	equ	0xFD9
  1110                           status	equ	0xFD8
  1111                           
  1112 ;; *************** function _USBDeviceAttach *****************
  1113 ;; Defined at:
  1114 ;;		line 1352 in file "../src/usb/src/usb_device.c"
  1115 ;; Parameters:    Size  Location     Type
  1116 ;;		None
  1117 ;; Auto vars:     Size  Location     Type
  1118 ;;		None
  1119 ;; Return value:  Size  Location     Type
  1120 ;;		None               void
  1121 ;; Registers used:
  1122 ;;		wreg, status,2
  1123 ;; Tracked objects:
  1124 ;;		On entry : 0/0
  1125 ;;		On exit  : 0/0
  1126 ;;		Unchanged: 0/0
  1127 ;; Data sizes:     COMRAM   BANK0   BANK1   BANK2   BANK3   BANK4   BANK5   BANK6   BANK7
  1128 ;;      Params:         0       0       0       0       0       0       0       0       0
  1129 ;;      Locals:         0       0       0       0       0       0       0       0       0
  1130 ;;      Temps:          0       0       0       0       0       0       0       0       0
  1131 ;;      Totals:         0       0       0       0       0       0       0       0       0
  1132 ;;Total ram usage:        0 bytes
  1133 ;; Hardware stack levels used:    1
  1134 ;; Hardware stack levels required when called:   11
  1135 ;; This function calls:
  1136 ;;		Nothing
  1137 ;; This function is called by:
  1138 ;;		_main
  1139 ;; This function uses a non-reentrant model
  1140 ;;
  1141                           
  1142                           	psect	text2
  1143  002198                     __ptext2:
  1144                           	opt stack 0
  1145  002198                     _USBDeviceAttach:
  1146                           	opt stack 19
  1147                           
  1148                           ;usb_device.c: 1356: {
  1149                           ;usb_device.c: 1357: if(1 == 1)
  1150                           
  1151                           ; BSR set to: 0
  1152                           ;incstack = 0
  1153  002198  0100               	movlb	0	; () banked
  1154  00219A  6778               	tstfsz	_USBDeviceState& (0+255),b	;volatile
  1155  00219C  D015               	goto	l406
  1156                           
  1157                           ; BSR set to: 0
  1158                           ;usb_device.c: 1358: {
  1159                           ;usb_device.c: 1360: UCON = 0;
  1160  00219E  0E00               	movlw	0
  1161  0021A0  6E6D               	movwf	3949,c	;volatile
  1162                           
  1163                           ;usb_device.c: 1363: UIE = 0;
  1164  0021A2  0E00               	movlw	0
  1165  0021A4  6E69               	movwf	3945,c	;volatile
  1166                           
  1167                           ;usb_device.c: 1367: { UCFG = 0x10 | 0x00 | 0x04 | 0x02; UEIE = 0x9F; UIE = 0x39 | 0x40 
      +                          | 0x02; };
  1168  0021A6  0E16               	movlw	22
  1169  0021A8  6E6F               	movwf	3951,c	;volatile
  1170  0021AA  0E9F               	movlw	159
  1171  0021AC  6E6B               	movwf	3947,c	;volatile
  1172  0021AE  0E7B               	movlw	123
  1173  0021B0  6E69               	movwf	3945,c	;volatile
  1174                           
  1175                           ; BSR set to: 0
  1176                           ;usb_device.c: 1369: {RCONbits.IPEN = 1;IPR2bits.USBIP = 1;PIE2bits.USBIE = 1;INTCONbits
      +                          .GIEH = 1;};
  1177  0021B2  8ED0               	bsf	4048,7,c	;volatile
  1178                           
  1179                           ; BSR set to: 0
  1180  0021B4  8AA2               	bsf	4002,5,c	;volatile
  1181                           
  1182                           ; BSR set to: 0
  1183  0021B6  8AA0               	bsf	4000,5,c	;volatile
  1184                           
  1185                           ; BSR set to: 0
  1186  0021B8  8EF2               	bsf	intcon,7,c	;volatile
  1187                           
  1188                           ;usb_device.c: 1372: while(!UCONbits.USBEN){UCONbits.USBEN = 1;}
  1189  0021BA  D001               	goto	l403
  1190  0021BC                     l404:
  1191  0021BC  866D               	bsf	3949,3,c	;volatile
  1192  0021BE                     l403:
  1193  0021BE  A66D               	btfss	3949,3,c	;volatile
  1194  0021C0  D7FD               	goto	l404
  1195                           
  1196                           ;usb_device.c: 1375: USBDeviceState = ATTACHED_STATE;
  1197  0021C2  0E01               	movlw	1
  1198  0021C4  0100               	movlb	0	; () banked
  1199  0021C6  6F78               	movwf	_USBDeviceState& (0+255),b	;volatile
  1200  0021C8                     l406:
  1201                           
  1202                           ; BSR set to: 0
  1203  0021C8  0012               	return	
  1204  0021CA                     __end_of_USBDeviceAttach:
  1205                           	opt stack 0
  1206                           tblptru	equ	0xFF8
  1207                           prodh	equ	0xFF4
  1208                           prodl	equ	0xFF3
  1209                           intcon	equ	0xFF2
  1210                           postinc0	equ	0xFEE
  1211                           wreg	equ	0xFE8
  1212                           indf2	equ	0xFDF
  1213                           postinc2	equ	0xFDE
  1214                           postdec2	equ	0xFDD
  1215                           fsr2h	equ	0xFDA
  1216                           fsr2l	equ	0xFD9
  1217                           status	equ	0xFD8
  1218                           
  1219 ;; *************** function _SYSTEM_Initialize *****************
  1220 ;; Defined at:
  1221 ;;		line 75 in file "../src/system.c"
  1222 ;; Parameters:    Size  Location     Type
  1223 ;;  state           1    wreg     enum E5258
  1224 ;; Auto vars:     Size  Location     Type
  1225 ;;  state           1   21[BANK0 ] enum E5258
  1226 ;; Return value:  Size  Location     Type
  1227 ;;		None               void
  1228 ;; Registers used:
  1229 ;;		wreg, status,2, status,0, cstack
  1230 ;; Tracked objects:
  1231 ;;		On entry : 0/0
  1232 ;;		On exit  : 0/0
  1233 ;;		Unchanged: 0/0
  1234 ;; Data sizes:     COMRAM   BANK0   BANK1   BANK2   BANK3   BANK4   BANK5   BANK6   BANK7
  1235 ;;      Params:         0       0       0       0       0       0       0       0       0
  1236 ;;      Locals:         0       1       0       0       0       0       0       0       0
  1237 ;;      Temps:          0       0       0       0       0       0       0       0       0
  1238 ;;      Totals:         0       1       0       0       0       0       0       0       0
  1239 ;;Total ram usage:        1 bytes
  1240 ;; Hardware stack levels used:    1
  1241 ;; Hardware stack levels required when called:   13
  1242 ;; This function calls:
  1243 ;;		_initADC
  1244 ;; This function is called by:
  1245 ;;		_main
  1246 ;; This function uses a non-reentrant model
  1247 ;;
  1248                           
  1249                           	psect	text3
  1250  0021CA                     __ptext3:
  1251                           	opt stack 0
  1252  0021CA                     _SYSTEM_Initialize:
  1253                           	opt stack 17
  1254                           
  1255                           ; BSR set to: 0
  1256                           ;incstack = 0
  1257                           ;SYSTEM_Initialize@state stored from wreg
  1258  0021CA  0100               	movlb	0	; () banked
  1259  0021CC  6F95               	movwf	SYSTEM_Initialize@state& (0+255),b
  1260                           
  1261                           ; BSR set to: 0
  1262                           ;system.c: 77: switch(state)
  1263  0021CE  D00C               	goto	l3426
  1264  0021D0                     l3410:
  1265                           
  1266                           ; BSR set to: 0
  1267                           ;system.c: 80: ;
  1268                           ;system.c: 81: ADCON1 |= 0x0F;
  1269  0021D0  0E0F               	movlw	15
  1270  0021D2  12C1               	iorwf	4033,f,c	;volatile
  1271                           
  1272                           ; BSR set to: 0
  1273                           ;system.c: 82: LATB &= 0x00; TRISB = 0x00;;
  1274  0021D4  0E00               	movlw	0
  1275  0021D6  6E8A               	movwf	3978,c	;volatile
  1276                           
  1277                           ; BSR set to: 0
  1278  0021D8  0E00               	movlw	0
  1279  0021DA  6E93               	movwf	3987,c	;volatile
  1280                           
  1281                           ; BSR set to: 0
  1282                           ;system.c: 83: TRISBbits.TRISB4=1;TRISBbits.TRISB5=1;;
  1283  0021DC  8893               	bsf	3987,4,c	;volatile
  1284                           
  1285                           ; BSR set to: 0
  1286  0021DE  8A93               	bsf	3987,5,c	;volatile
  1287                           
  1288                           ; BSR set to: 0
  1289                           ;system.c: 84: TRISAbits.TRISA0 = 1;;
  1290  0021E0  8092               	bsf	3986,0,c	;volatile
  1291                           
  1292                           ; BSR set to: 0
  1293                           ;system.c: 85: initADC();
  1294  0021E2  EC5F  F011         	call	_initADC	;wreg free
  1295                           
  1296                           ;system.c: 86: break;
  1297  0021E6  D008               	goto	l194
  1298  0021E8                     l3426:
  1299  0021E8  0100               	movlb	0	; () banked
  1300  0021EA  5195               	movf	SYSTEM_Initialize@state& (0+255),w,b
  1301                           
  1302                           ; Switch size 1, requested type "space"
  1303                           ; Number of cases is 3, Range of values is 0 to 2
  1304                           ; switch strategies available:
  1305                           ; Name         Instructions Cycles
  1306                           ; simple_byte           10     6 (average)
  1307                           ;	Chosen strategy is simple_byte
  1308  0021EC  0A00               	xorlw	0	; case 0
  1309  0021EE  B4D8               	btfsc	status,2,c
  1310  0021F0  D7EF               	goto	l3410
  1311  0021F2  0A01               	xorlw	1	; case 1
  1312  0021F4  A4D8               	btfss	status,2,c
  1313  0021F6  0A03               	xorlw	3	; case 2
  1314  0021F8                     l194:
  1315  0021F8  0012               	return	
  1316  0021FA                     __end_of_SYSTEM_Initialize:
  1317                           	opt stack 0
  1318                           tblptru	equ	0xFF8
  1319                           prodh	equ	0xFF4
  1320                           prodl	equ	0xFF3
  1321                           intcon	equ	0xFF2
  1322                           postinc0	equ	0xFEE
  1323                           wreg	equ	0xFE8
  1324                           indf2	equ	0xFDF
  1325                           postinc2	equ	0xFDE
  1326                           postdec2	equ	0xFDD
  1327                           fsr2h	equ	0xFDA
  1328                           fsr2l	equ	0xFD9
  1329                           status	equ	0xFD8
  1330                           
  1331 ;; *************** function _initADC *****************
  1332 ;; Defined at:
  1333 ;;		line 47 in file "../config_18F2550.c"
  1334 ;; Parameters:    Size  Location     Type
  1335 ;;		None
  1336 ;; Auto vars:     Size  Location     Type
  1337 ;;		None
  1338 ;; Return value:  Size  Location     Type
  1339 ;;		None               void
  1340 ;; Registers used:
  1341 ;;		wreg, status,2, status,0, cstack
  1342 ;; Tracked objects:
  1343 ;;		On entry : 0/0
  1344 ;;		On exit  : 0/0
  1345 ;;		Unchanged: 0/0
  1346 ;; Data sizes:     COMRAM   BANK0   BANK1   BANK2   BANK3   BANK4   BANK5   BANK6   BANK7
  1347 ;;      Params:         0       0       0       0       0       0       0       0       0
  1348 ;;      Locals:         0       0       0       0       0       0       0       0       0
  1349 ;;      Temps:          0       0       0       0       0       0       0       0       0
  1350 ;;      Totals:         0       0       0       0       0       0       0       0       0
  1351 ;;Total ram usage:        0 bytes
  1352 ;; Hardware stack levels used:    1
  1353 ;; Hardware stack levels required when called:   12
  1354 ;; This function calls:
  1355 ;;		_OpenADC
  1356 ;; This function is called by:
  1357 ;;		_SYSTEM_Initialize
  1358 ;; This function uses a non-reentrant model
  1359 ;;
  1360                           
  1361                           	psect	text4
  1362  0022BE                     __ptext4:
  1363                           	opt stack 0
  1364  0022BE                     _initADC:
  1365                           	opt stack 17
  1366                           
  1367                           ;config_18F2550.c: 48: OpenADC(0b11101111 & 0b11111111 & 0b11110011,
  1368                           ;config_18F2550.c: 49: 0b10000111 & 0b01111111 & 0b11111100,
  1369                           ;config_18F2550.c: 50: 0b11111110);
  1370                           
  1371                           ;incstack = 0
  1372  0022BE  0E04               	movlw	4
  1373  0022C0  0100               	movlb	0	; () banked
  1374  0022C2  6F90               	movwf	OpenADC@config2& (0+255),b
  1375  0022C4  0EFE               	movlw	254
  1376  0022C6  0100               	movlb	0	; () banked
  1377  0022C8  6F91               	movwf	OpenADC@portconfig& (0+255),b
  1378  0022CA  0EE3               	movlw	227
  1379  0022CC  EC71  F00F         	call	_OpenADC
  1380  0022D0  0012               	return	
  1381  0022D2                     __end_of_initADC:
  1382                           	opt stack 0
  1383                           tblptru	equ	0xFF8
  1384                           prodh	equ	0xFF4
  1385                           prodl	equ	0xFF3
  1386                           intcon	equ	0xFF2
  1387                           postinc0	equ	0xFEE
  1388                           wreg	equ	0xFE8
  1389                           indf2	equ	0xFDF
  1390                           postinc2	equ	0xFDE
  1391                           postdec2	equ	0xFDD
  1392                           fsr2h	equ	0xFDA
  1393                           fsr2l	equ	0xFD9
  1394                           status	equ	0xFD8
  1395                           
  1396 ;; *************** function _OpenADC *****************
  1397 ;; Defined at:
  1398 ;;		line 68 in file "C:\Program Files (x86)\Microchip\xc8\v1.33\sources\pic18\plib\ADC\adcopen.c"
  1399 ;; Parameters:    Size  Location     Type
  1400 ;;  config          1    wreg     unsigned char 
  1401 ;;  config2         1   16[BANK0 ] unsigned char 
  1402 ;;  portconfig      1   17[BANK0 ] unsigned char 
  1403 ;; Auto vars:     Size  Location     Type
  1404 ;;  config          1   20[BANK0 ] unsigned char 
  1405 ;; Return value:  Size  Location     Type
  1406 ;;		None               void
  1407 ;; Registers used:
  1408 ;;		wreg, status,2, status,0
  1409 ;; Tracked objects:
  1410 ;;		On entry : 0/0
  1411 ;;		On exit  : 0/0
  1412 ;;		Unchanged: 0/0
  1413 ;; Data sizes:     COMRAM   BANK0   BANK1   BANK2   BANK3   BANK4   BANK5   BANK6   BANK7
  1414 ;;      Params:         0       2       0       0       0       0       0       0       0
  1415 ;;      Locals:         0       1       0       0       0       0       0       0       0
  1416 ;;      Temps:          0       2       0       0       0       0       0       0       0
  1417 ;;      Totals:         0       5       0       0       0       0       0       0       0
  1418 ;;Total ram usage:        5 bytes
  1419 ;; Hardware stack levels used:    1
  1420 ;; Hardware stack levels required when called:   11
  1421 ;; This function calls:
  1422 ;;		Nothing
  1423 ;; This function is called by:
  1424 ;;		_initADC
  1425 ;; This function uses a non-reentrant model
  1426 ;;
  1427                           
  1428                           	psect	text5
  1429  001EE2                     __ptext5:
  1430                           	opt stack 0
  1431  001EE2                     _OpenADC:
  1432                           	opt stack 17
  1433                           
  1434                           ;incstack = 0
  1435                           ;OpenADC@config stored from wreg
  1436  001EE2  0100               	movlb	0	; () banked
  1437  001EE4  6F94               	movwf	OpenADC@config& (0+255),b
  1438                           
  1439                           ; BSR set to: 0
  1440  001EE6  0E00               	movlw	0
  1441  001EE8  6EC2               	movwf	4034,c	;volatile
  1442  001EEA  0E00               	movlw	0
  1443  001EEC  6EC0               	movwf	4032,c	;volatile
  1444                           
  1445                           ; BSR set to: 0
  1446  001EEE  0100               	movlb	0	; () banked
  1447  001EF0  90D8               	bcf	status,0,c
  1448  001EF2  3190               	rrcf	OpenADC@config2& (0+255),w,b
  1449  001EF4  0B3C               	andlw	60
  1450  001EF6  6EC2               	movwf	4034,c	;volatile
  1451                           
  1452                           ; BSR set to: 0
  1453  001EF8  C090  F092         	movff	OpenADC@config2,??_OpenADC
  1454  001EFC  0100               	movlb	0	; () banked
  1455  001EFE  3B92               	swapf	??_OpenADC& (0+255),f,b
  1456  001F00  0EF0               	movlw	240
  1457  001F02  1792               	andwf	??_OpenADC& (0+255),f,b
  1458  001F04  0E30               	movlw	48
  1459  001F06  0100               	movlb	0	; () banked
  1460  001F08  1792               	andwf	??_OpenADC& (0+255),f,b
  1461  001F0A  0100               	movlb	0	; () banked
  1462  001F0C  5191               	movf	OpenADC@portconfig& (0+255),w,b
  1463  001F0E  0B0F               	andlw	15
  1464  001F10  0100               	movlb	0	; () banked
  1465  001F12  1192               	iorwf	??_OpenADC& (0+255),w,b
  1466  001F14  6EC1               	movwf	4033,c	;volatile
  1467                           
  1468                           ; BSR set to: 0
  1469  001F16  C094  F092         	movff	OpenADC@config,??_OpenADC
  1470  001F1A  0100               	movlb	0	; () banked
  1471  001F1C  90D8               	bcf	status,0,c
  1472  001F1E  3792               	rlcf	??_OpenADC& (0+255),f,b
  1473  001F20  0100               	movlb	0	; () banked
  1474  001F22  90D8               	bcf	status,0,c
  1475  001F24  3792               	rlcf	??_OpenADC& (0+255),f,b
  1476  001F26  0E38               	movlw	56
  1477  001F28  0100               	movlb	0	; () banked
  1478  001F2A  1792               	andwf	??_OpenADC& (0+255),f,b
  1479  001F2C  C094  F093         	movff	OpenADC@config,??_OpenADC+1
  1480  001F30  0100               	movlb	0	; () banked
  1481  001F32  3B93               	swapf	(??_OpenADC+1)& (0+255),f,b
  1482  001F34  0E0F               	movlw	15
  1483  001F36  1793               	andwf	(??_OpenADC+1)& (0+255),f,b
  1484  001F38  0E07               	movlw	7
  1485  001F3A  0100               	movlb	0	; () banked
  1486  001F3C  1793               	andwf	(??_OpenADC+1)& (0+255),f,b
  1487  001F3E  0100               	movlb	0	; () banked
  1488  001F40  5194               	movf	OpenADC@config& (0+255),w,b
  1489  001F42  0B80               	andlw	128
  1490  001F44  0100               	movlb	0	; () banked
  1491  001F46  1193               	iorwf	(??_OpenADC+1)& (0+255),w,b
  1492  001F48  0100               	movlb	0	; () banked
  1493  001F4A  1192               	iorwf	??_OpenADC& (0+255),w,b
  1494  001F4C  6EC0               	movwf	4032,c	;volatile
  1495                           
  1496                           ; BSR set to: 0
  1497  001F4E  0100               	movlb	0	; () banked
  1498  001F50  AF90               	btfss	OpenADC@config2& (0+255),7,b
  1499  001F52  D003               	goto	l655
  1500                           
  1501                           ; BSR set to: 0
  1502  001F54  9C9E               	bcf	3998,6,c	;volatile
  1503  001F56  8C9D               	bsf	3997,6,c	;volatile
  1504  001F58  8CF2               	bsf	intcon,6,c	;volatile
  1505  001F5A                     l655:
  1506                           
  1507                           ; BSR set to: 0
  1508  001F5A  80C2               	bsf	4034,0,c	;volatile
  1509                           
  1510                           ; BSR set to: 0
  1511  001F5C  0012               	return	
  1512  001F5E                     __end_of_OpenADC:
  1513                           	opt stack 0
  1514                           tblptru	equ	0xFF8
  1515                           prodh	equ	0xFF4
  1516                           prodl	equ	0xFF3
  1517                           intcon	equ	0xFF2
  1518                           postinc0	equ	0xFEE
  1519                           wreg	equ	0xFE8
  1520                           indf2	equ	0xFDF
  1521                           postinc2	equ	0xFDE
  1522                           postdec2	equ	0xFDD
  1523                           fsr2h	equ	0xFDA
  1524                           fsr2l	equ	0xFD9
  1525                           status	equ	0xFD8
  1526                           
  1527 ;; *************** function _APP_CustomHIDTasks *****************
  1528 ;; Defined at:
  1529 ;;		line 57 in file "../src/app_custom_hid.c"
  1530 ;; Parameters:    Size  Location     Type
  1531 ;;		None
  1532 ;; Auto vars:     Size  Location     Type
  1533 ;;		None
  1534 ;; Return value:  Size  Location     Type
  1535 ;;		None               void
  1536 ;; Registers used:
  1537 ;;		wreg, fsr2l, fsr2h, status,2, status,0, prodl, prodh, cstack
  1538 ;; Tracked objects:
  1539 ;;		On entry : 0/0
  1540 ;;		On exit  : 0/0
  1541 ;;		Unchanged: 0/0
  1542 ;; Data sizes:     COMRAM   BANK0   BANK1   BANK2   BANK3   BANK4   BANK5   BANK6   BANK7
  1543 ;;      Params:         0       0       0       0       0       0       0       0       0
  1544 ;;      Locals:         0       4       0       0       0       0       0       0       0
  1545 ;;      Temps:          0       1       0       0       0       0       0       0       0
  1546 ;;      Totals:         0       5       0       0       0       0       0       0       0
  1547 ;;Total ram usage:        5 bytes
  1548 ;; Hardware stack levels used:    1
  1549 ;; Hardware stack levels required when called:   12
  1550 ;; This function calls:
  1551 ;;		_BusyADC
  1552 ;;		_ConvertADC
  1553 ;;		_USBTransferOnePacket
  1554 ;;		_memset
  1555 ;; This function is called by:
  1556 ;;		_main
  1557 ;; This function uses a non-reentrant model
  1558 ;;
  1559                           
  1560                           	psect	text6
  1561  000BA0                     __ptext6:
  1562                           	opt stack 0
  1563  000BA0                     _APP_CustomHIDTasks:
  1564                           	opt stack 18
  1565                           
  1566                           ;app_custom_hid.c: 58: if(!(USBOutHandle==0?0:((volatile BDT_ENTRY*)USBOutHandle)->STAT.
      +                          UOWN)) {
  1567                           
  1568                           ; BSR set to: 0
  1569                           ;incstack = 0
  1570  000BA0  0100               	movlb	0	; () banked
  1571  000BA2  5173               	movf	(_USBOutHandle+1)& (0+255),w,b
  1572  000BA4  1172               	iorwf	_USBOutHandle& (0+255),w,b
  1573  000BA6  B4D8               	btfsc	status,2,c
  1574  000BA8  D013               	goto	l3366
  1575                           
  1576                           ; BSR set to: 0
  1577  000BAA  C072  FFD9         	movff	_USBOutHandle,fsr2l
  1578  000BAE  C073  FFDA         	movff	_USBOutHandle+1,fsr2h
  1579  000BB2  AEDF               	btfss	indf2,7,c
  1580  000BB4  D004               	goto	u2570
  1581  000BB6  0100               	movlb	0	; () banked
  1582  000BB8  6B98               	clrf	??_APP_CustomHIDTasks& (0+255),b
  1583  000BBA  2B98               	incf	??_APP_CustomHIDTasks& (0+255),f,b
  1584  000BBC  D002               	goto	u2578
  1585  000BBE                     u2570:
  1586  000BBE  0100               	movlb	0	; () banked
  1587  000BC0  6B98               	clrf	??_APP_CustomHIDTasks& (0+255),b
  1588  000BC2                     u2578:
  1589  000BC2  0100               	movlb	0	; () banked
  1590  000BC4  5198               	movf	??_APP_CustomHIDTasks& (0+255),w,b
  1591  000BC6  0100               	movlb	0	; () banked
  1592  000BC8  6F99               	movwf	_APP_CustomHIDTasks$326& (0+255),b
  1593  000BCA  0100               	movlb	0	; () banked
  1594  000BCC  6B9A               	clrf	(_APP_CustomHIDTasks$326+1)& (0+255),b
  1595  000BCE  D006               	goto	l3368
  1596  000BD0                     l3366:
  1597                           
  1598                           ; BSR set to: 0
  1599  000BD0  0E00               	movlw	0
  1600  000BD2  0100               	movlb	0	; () banked
  1601  000BD4  6F9A               	movwf	(_APP_CustomHIDTasks$326+1)& (0+255),b
  1602  000BD6  0E00               	movlw	0
  1603  000BD8  0100               	movlb	0	; () banked
  1604  000BDA  6F99               	movwf	_APP_CustomHIDTasks$326& (0+255),b
  1605  000BDC                     l3368:
  1606                           
  1607                           ; BSR set to: 0
  1608  000BDC  0100               	movlb	0	; () banked
  1609  000BDE  519A               	movf	(_APP_CustomHIDTasks$326+1)& (0+255),w,b
  1610  000BE0  1199               	iorwf	_APP_CustomHIDTasks$326& (0+255),w,b
  1611  000BE2  A4D8               	btfss	status,2,c
  1612  000BE4  D06F               	goto	l3394
  1613                           
  1614                           ; BSR set to: 0
  1615                           ;app_custom_hid.c: 60: memset( ToSendDataBuffer, ' ', sizeof(ToSendDataBuffer) );
  1616  000BE6  0105               	movlb	5	; () banked
  1617  000BE8  0E05               	movlw	5
  1618  000BEA  0100               	movlb	0	; () banked
  1619  000BEC  6F91               	movwf	(memset@p1+1)& (0+255),b
  1620  000BEE  0105               	movlb	5	; () banked
  1621  000BF0  0E40               	movlw	64
  1622  000BF2  0100               	movlb	0	; () banked
  1623  000BF4  6F90               	movwf	memset@p1& (0+255),b
  1624  000BF6  0E00               	movlw	0
  1625  000BF8  0100               	movlb	0	; () banked
  1626  000BFA  6F93               	movwf	(memset@c+1)& (0+255),b
  1627  000BFC  0E20               	movlw	32
  1628  000BFE  0100               	movlb	0	; () banked
  1629  000C00  6F92               	movwf	memset@c& (0+255),b
  1630  000C02  0E00               	movlw	0
  1631  000C04  0100               	movlb	0	; () banked
  1632  000C06  6F95               	movwf	(memset@n+1)& (0+255),b
  1633  000C08  0E40               	movlw	64
  1634  000C0A  0100               	movlb	0	; () banked
  1635  000C0C  6F94               	movwf	memset@n& (0+255),b
  1636  000C0E  ECB0  F010         	call	_memset	;wreg free
  1637                           
  1638                           ;app_custom_hid.c: 63: switch(ReceivedDataBuffer[0]) {
  1639  000C12  D02E               	goto	l3386
  1640  000C14                     l3372:
  1641                           
  1642                           ;app_custom_hid.c: 65: LATBbits.LATB2 = !LATBbits.LATB2;;
  1643  000C14  B48A               	btfsc	3978,2,c	;volatile
  1644  000C16  D002               	goto	u2590
  1645  000C18  0E01               	movlw	1
  1646  000C1A  D001               	goto	u2596
  1647  000C1C                     u2590:
  1648  000C1C  0E00               	movlw	0
  1649  000C1E                     u2596:
  1650  000C1E  0100               	movlb	0	; () banked
  1651  000C20  6F98               	movwf	??_APP_CustomHIDTasks& (0+255),b
  1652  000C22  0100               	movlb	0	; () banked
  1653  000C24  4798               	rlncf	??_APP_CustomHIDTasks& (0+255),f,b
  1654  000C26  4798               	rlncf	??_APP_CustomHIDTasks& (0+255),f,b
  1655  000C28  508A               	movf	3978,w,c	;volatile
  1656  000C2A  0100               	movlb	0	; () banked
  1657  000C2C  1998               	xorwf	??_APP_CustomHIDTasks& (0+255),w,b
  1658  000C2E  0BFB               	andlw	-5
  1659  000C30  1998               	xorwf	??_APP_CustomHIDTasks& (0+255),w,b
  1660  000C32  6E8A               	movwf	3978,c	;volatile
  1661                           
  1662                           ;app_custom_hid.c: 66: break;
  1663  000C34  D028               	goto	l58
  1664  000C36                     l3374:
  1665                           
  1666                           ;app_custom_hid.c: 68: ToSendDataBuffer[0] = COMMAND_GET_BUTTON_STATUS;
  1667  000C36  0E81               	movlw	129
  1668  000C38  0105               	movlb	5	; () banked
  1669  000C3A  6F40               	movwf	64,b
  1670                           
  1671                           ;app_custom_hid.c: 69: ToSendDataBuffer[1] = !PORTBbits.RB4;
  1672  000C3C  B881               	btfsc	3969,4,c	;volatile
  1673  000C3E  D002               	goto	u2600
  1674  000C40  0E01               	movlw	1
  1675  000C42  D001               	goto	u2606
  1676  000C44                     u2600:
  1677  000C44  0E00               	movlw	0
  1678  000C46                     u2606:
  1679  000C46  0105               	movlb	5	; () banked
  1680  000C48  6F41               	movwf	65,b
  1681  000C4A  D00E               	goto	L3
  1682  000C4C                     l3376:
  1683                           
  1684                           ;app_custom_hid.c: 73: ConvertADC();
  1685  000C4C  EC6F  F011         	call	_ConvertADC	;wreg free
  1686                           
  1687                           ;app_custom_hid.c: 74: ToSendDataBuffer[0] = COMMAND_READ_POTENTIOMETER;
  1688  000C50  0E37               	movlw	55
  1689  000C52  0105               	movlb	5	; () banked
  1690  000C54  6F40               	movwf	64,b
  1691  000C56                     l3380:
  1692  000C56  EC69  F011         	call	_BusyADC	;wreg free
  1693  000C5A  0900               	iorlw	0
  1694  000C5C  A4D8               	btfss	status,2,c
  1695  000C5E  D7FB               	goto	l3380
  1696                           
  1697                           ;app_custom_hid.c: 77: }
  1698                           ;app_custom_hid.c: 78: ToSendDataBuffer[1] = ADRESL;
  1699  000C60  CFC3 F541          	movff	4035,1345	;volatile
  1700                           
  1701                           ;app_custom_hid.c: 79: ToSendDataBuffer[2] = ADRESH;
  1702  000C64  CFC4 F542          	movff	4036,1346	;volatile
  1703  000C68                     L3:
  1704                           
  1705                           ;app_custom_hid.c: 80: _doTransmit = 1;
  1706  000C68  0E01               	movlw	1
  1707  000C6A  0100               	movlb	0	; () banked
  1708  000C6C  6F79               	movwf	__doTransmit& (0+255),b
  1709                           
  1710                           ;app_custom_hid.c: 81: break;
  1711  000C6E  D00B               	goto	l58
  1712  000C70                     l3386:
  1713  000C70  0105               	movlb	5	; () banked
  1714  000C72  5100               	movf	0,w,b
  1715                           
  1716                           ; Switch size 1, requested type "space"
  1717                           ; Number of cases is 3, Range of values is 55 to 129
  1718                           ; switch strategies available:
  1719                           ; Name         Instructions Cycles
  1720                           ; simple_byte           10     6 (average)
  1721                           ;	Chosen strategy is simple_byte
  1722  000C74  0A37               	xorlw	55	; case 55
  1723  000C76  B4D8               	btfsc	status,2,c
  1724  000C78  D7E9               	goto	l3376
  1725  000C7A  0AB7               	xorlw	183	; case 128
  1726  000C7C  B4D8               	btfsc	status,2,c
  1727  000C7E  D7CA               	goto	l3372
  1728  000C80  0A01               	xorlw	1	; case 129
  1729  000C82  B4D8               	btfsc	status,2,c
  1730  000C84  D7D8               	goto	l3374
  1731  000C86                     l58:
  1732                           
  1733                           ;app_custom_hid.c: 84: if(!_doTransmit) {
  1734  000C86  0100               	movlb	0	; () banked
  1735  000C88  6779               	tstfsz	__doTransmit& (0+255),b
  1736  000C8A  D005               	goto	l3392
  1737                           
  1738                           ; BSR set to: 0
  1739                           ;app_custom_hid.c: 86: ToSendDataBuffer[0] = ReceivedDataBuffer[0];
  1740  000C8C  C500 F540          	movff	1280,1344
  1741                           
  1742                           ; BSR set to: 0
  1743                           ;app_custom_hid.c: 87: _doTransmit = 1;
  1744  000C90  0E01               	movlw	1
  1745  000C92  0100               	movlb	0	; () banked
  1746  000C94  6F79               	movwf	__doTransmit& (0+255),b
  1747  000C96                     l3392:
  1748                           
  1749                           ; BSR set to: 0
  1750                           ;app_custom_hid.c: 88: }
  1751                           ;app_custom_hid.c: 91: USBOutHandle = USBTransferOnePacket(1,0,(uint8_t*)&ReceivedDataBu
      +                          ffer,64);
  1752  000C96  0E00               	movlw	0
  1753  000C98  0100               	movlb	0	; () banked
  1754  000C9A  6F90               	movwf	USBTransferOnePacket@dir& (0+255),b
  1755  000C9C  0105               	movlb	5	; () banked
  1756  000C9E  0E05               	movlw	5
  1757  000CA0  0100               	movlb	0	; () banked
  1758  000CA2  6F92               	movwf	(USBTransferOnePacket@data+1)& (0+255),b
  1759  000CA4  0105               	movlb	5	; () banked
  1760  000CA6  0E00               	movlw	0
  1761  000CA8  0100               	movlb	0	; () banked
  1762  000CAA  6F91               	movwf	USBTransferOnePacket@data& (0+255),b
  1763  000CAC  0E40               	movlw	64
  1764  000CAE  0100               	movlb	0	; () banked
  1765  000CB0  6F93               	movwf	USBTransferOnePacket@len& (0+255),b
  1766  000CB2  0E01               	movlw	1
  1767  000CB4  EC46  F00A         	call	_USBTransferOnePacket
  1768  000CB8  0100               	movlb	0	; () banked
  1769  000CBA  C090  F072         	movff	?_USBTransferOnePacket,_USBOutHandle
  1770  000CBE  0100               	movlb	0	; () banked
  1771  000CC0  C091  F073         	movff	?_USBTransferOnePacket+1,_USBOutHandle+1
  1772  000CC4                     l3394:
  1773                           
  1774                           ; BSR set to: 0
  1775                           ;app_custom_hid.c: 92: }
  1776                           ;app_custom_hid.c: 93: if(!(USBInHandle==0?0:((volatile BDT_ENTRY*)USBInHandle)->STAT.UO
      +                          WN) && _doTransmit){
  1777  000CC4  0100               	movlb	0	; () banked
  1778  000CC6  5171               	movf	(_USBInHandle+1)& (0+255),w,b
  1779  000CC8  1170               	iorwf	_USBInHandle& (0+255),w,b
  1780  000CCA  B4D8               	btfsc	status,2,c
  1781  000CCC  D013               	goto	l3398
  1782                           
  1783                           ; BSR set to: 0
  1784  000CCE  C070  FFD9         	movff	_USBInHandle,fsr2l
  1785  000CD2  C071  FFDA         	movff	_USBInHandle+1,fsr2h
  1786  000CD6  AEDF               	btfss	indf2,7,c
  1787  000CD8  D004               	goto	u2640
  1788  000CDA  0100               	movlb	0	; () banked
  1789  000CDC  6B98               	clrf	??_APP_CustomHIDTasks& (0+255),b
  1790  000CDE  2B98               	incf	??_APP_CustomHIDTasks& (0+255),f,b
  1791  000CE0  D002               	goto	u2648
  1792  000CE2                     u2640:
  1793  000CE2  0100               	movlb	0	; () banked
  1794  000CE4  6B98               	clrf	??_APP_CustomHIDTasks& (0+255),b
  1795  000CE6                     u2648:
  1796  000CE6  0100               	movlb	0	; () banked
  1797  000CE8  5198               	movf	??_APP_CustomHIDTasks& (0+255),w,b
  1798  000CEA  0100               	movlb	0	; () banked
  1799  000CEC  6F9B               	movwf	_APP_CustomHIDTasks$376& (0+255),b
  1800  000CEE  0100               	movlb	0	; () banked
  1801  000CF0  6B9C               	clrf	(_APP_CustomHIDTasks$376+1)& (0+255),b
  1802  000CF2  D006               	goto	l3400
  1803  000CF4                     l3398:
  1804                           
  1805                           ; BSR set to: 0
  1806  000CF4  0E00               	movlw	0
  1807  000CF6  0100               	movlb	0	; () banked
  1808  000CF8  6F9C               	movwf	(_APP_CustomHIDTasks$376+1)& (0+255),b
  1809  000CFA  0E00               	movlw	0
  1810  000CFC  0100               	movlb	0	; () banked
  1811  000CFE  6F9B               	movwf	_APP_CustomHIDTasks$376& (0+255),b
  1812  000D00                     l3400:
  1813                           
  1814                           ; BSR set to: 0
  1815  000D00  0100               	movlb	0	; () banked
  1816  000D02  519C               	movf	(_APP_CustomHIDTasks$376+1)& (0+255),w,b
  1817  000D04  119B               	iorwf	_APP_CustomHIDTasks$376& (0+255),w,b
  1818  000D06  A4D8               	btfss	status,2,c
  1819  000D08  D01E               	goto	l70
  1820                           
  1821                           ; BSR set to: 0
  1822  000D0A  0100               	movlb	0	; () banked
  1823  000D0C  5179               	movf	__doTransmit& (0+255),w,b
  1824  000D0E  B4D8               	btfsc	status,2,c
  1825  000D10  D01A               	goto	l70
  1826                           
  1827                           ; BSR set to: 0
  1828                           ;app_custom_hid.c: 95: USBInHandle = USBTransferOnePacket(1,1,(uint8_t *)ToSendDataBuffe
      +                          r,64);
  1829  000D12  0E01               	movlw	1
  1830  000D14  0100               	movlb	0	; () banked
  1831  000D16  6F90               	movwf	USBTransferOnePacket@dir& (0+255),b
  1832  000D18  0105               	movlb	5	; () banked
  1833  000D1A  0E05               	movlw	5
  1834  000D1C  0100               	movlb	0	; () banked
  1835  000D1E  6F92               	movwf	(USBTransferOnePacket@data+1)& (0+255),b
  1836  000D20  0105               	movlb	5	; () banked
  1837  000D22  0E40               	movlw	64
  1838  000D24  0100               	movlb	0	; () banked
  1839  000D26  6F91               	movwf	USBTransferOnePacket@data& (0+255),b
  1840  000D28  0E40               	movlw	64
  1841  000D2A  0100               	movlb	0	; () banked
  1842  000D2C  6F93               	movwf	USBTransferOnePacket@len& (0+255),b
  1843  000D2E  0E01               	movlw	1
  1844  000D30  EC46  F00A         	call	_USBTransferOnePacket
  1845  000D34  0100               	movlb	0	; () banked
  1846  000D36  C090  F070         	movff	?_USBTransferOnePacket,_USBInHandle
  1847  000D3A  0100               	movlb	0	; () banked
  1848  000D3C  C091  F071         	movff	?_USBTransferOnePacket+1,_USBInHandle+1
  1849                           
  1850                           ; BSR set to: 0
  1851                           ;app_custom_hid.c: 96: _doTransmit = 0;
  1852  000D40  0E00               	movlw	0
  1853  000D42  0100               	movlb	0	; () banked
  1854  000D44  6F79               	movwf	__doTransmit& (0+255),b
  1855  000D46                     l70:
  1856                           
  1857                           ; BSR set to: 0
  1858  000D46  0012               	return	
  1859  000D48                     __end_of_APP_CustomHIDTasks:
  1860                           	opt stack 0
  1861                           tblptru	equ	0xFF8
  1862                           prodh	equ	0xFF4
  1863                           prodl	equ	0xFF3
  1864                           intcon	equ	0xFF2
  1865                           postinc0	equ	0xFEE
  1866                           wreg	equ	0xFE8
  1867                           indf2	equ	0xFDF
  1868                           postinc2	equ	0xFDE
  1869                           postdec2	equ	0xFDD
  1870                           fsr2h	equ	0xFDA
  1871                           fsr2l	equ	0xFD9
  1872                           status	equ	0xFD8
  1873                           
  1874 ;; *************** function _memset *****************
  1875 ;; Defined at:
  1876 ;;		line 8 in file "C:\Program Files (x86)\Microchip\xc8\v1.33\sources\common\memset.c"
  1877 ;; Parameters:    Size  Location     Type
  1878 ;;  p1              2   16[BANK0 ] PTR void 
  1879 ;;		 -> USBAlternateInterface(1), BDT(32), UEP1(1), ToSendDataBuffer(64), 
  1880 ;;  c               2   18[BANK0 ] int 
  1881 ;;  n               2   20[BANK0 ] unsigned int 
  1882 ;; Auto vars:     Size  Location     Type
  1883 ;;  p               2   22[BANK0 ] PTR unsigned char 
  1884 ;;		 -> USBAlternateInterface(1), BDT(32), UEP1(1), ToSendDataBuffer(64), 
  1885 ;; Return value:  Size  Location     Type
  1886 ;;                  2   16[BANK0 ] PTR void 
  1887 ;; Registers used:
  1888 ;;		wreg, fsr2l, fsr2h, status,2, status,0
  1889 ;; Tracked objects:
  1890 ;;		On entry : 0/0
  1891 ;;		On exit  : 0/0
  1892 ;;		Unchanged: 0/0
  1893 ;; Data sizes:     COMRAM   BANK0   BANK1   BANK2   BANK3   BANK4   BANK5   BANK6   BANK7
  1894 ;;      Params:         0       6       0       0       0       0       0       0       0
  1895 ;;      Locals:         0       2       0       0       0       0       0       0       0
  1896 ;;      Temps:          0       0       0       0       0       0       0       0       0
  1897 ;;      Totals:         0       8       0       0       0       0       0       0       0
  1898 ;;Total ram usage:        8 bytes
  1899 ;; Hardware stack levels used:    1
  1900 ;; Hardware stack levels required when called:   11
  1901 ;; This function calls:
  1902 ;;		Nothing
  1903 ;; This function is called by:
  1904 ;;		_APP_CustomHIDTasks
  1905 ;;		_USBDeviceInit
  1906 ;; This function uses a non-reentrant model
  1907 ;;
  1908                           
  1909                           	psect	text7
  1910  002160                     __ptext7:
  1911                           	opt stack 0
  1912  002160                     _memset:
  1913                           	opt stack 18
  1914                           
  1915                           ; BSR set to: 0
  1916                           ;incstack = 0
  1917  002160  0100               	movlb	0	; () banked
  1918  002162  C091  F097         	movff	memset@p1+1,memset@p+1
  1919  002166  0100               	movlb	0	; () banked
  1920  002168  C090  F096         	movff	memset@p1,memset@p
  1921  00216C  D00A               	goto	l3216
  1922  00216E                     l3212:
  1923                           
  1924                           ; BSR set to: 0
  1925  00216E  C096  FFD9         	movff	memset@p,fsr2l
  1926  002172  C097  FFDA         	movff	memset@p+1,fsr2h
  1927  002176  0100               	movlb	0	; () banked
  1928  002178  C092  FFDF         	movff	memset@c,indf2
  1929                           
  1930                           ; BSR set to: 0
  1931  00217C  0100               	movlb	0	; () banked
  1932  00217E  4B96               	infsnz	memset@p& (0+255),f,b
  1933  002180  2B97               	incf	(memset@p+1)& (0+255),f,b
  1934  002182                     l3216:
  1935                           
  1936                           ; BSR set to: 0
  1937  002182  0100               	movlb	0	; () banked
  1938  002184  0794               	decf	memset@n& (0+255),f,b
  1939  002186  A0D8               	btfss	status,0,c
  1940  002188  0795               	decf	(memset@n+1)& (0+255),f,b
  1941  00218A  0100               	movlb	0	; () banked
  1942  00218C  2994               	incf	memset@n& (0+255),w,b
  1943  00218E  B4D8               	btfsc	status,2,c
  1944  002190  2995               	incf	(memset@n+1)& (0+255),w,b
  1945  002192  B4D8               	btfsc	status,2,c
  1946                           
  1947                           ; BSR set to: 0
  1948                           
  1949                           ; BSR set to: 0
  1950                           ;	Return value of _memset is never used
  1951  002194  0012               	return	
  1952  002196  D7EB               	goto	l3212
  1953  002198                     __end_of_memset:
  1954                           	opt stack 0
  1955                           tblptru	equ	0xFF8
  1956                           prodh	equ	0xFF4
  1957                           prodl	equ	0xFF3
  1958                           intcon	equ	0xFF2
  1959                           postinc0	equ	0xFEE
  1960                           wreg	equ	0xFE8
  1961                           indf2	equ	0xFDF
  1962                           postinc2	equ	0xFDE
  1963                           postdec2	equ	0xFDD
  1964                           fsr2h	equ	0xFDA
  1965                           fsr2l	equ	0xFD9
  1966                           status	equ	0xFD8
  1967                           
  1968 ;; *************** function _USBTransferOnePacket *****************
  1969 ;; Defined at:
  1970 ;;		line 995 in file "../src/usb/src/usb_device.c"
  1971 ;; Parameters:    Size  Location     Type
  1972 ;;  ep              1    wreg     unsigned char 
  1973 ;;  dir             1   16[BANK0 ] unsigned char 
  1974 ;;  data            2   17[BANK0 ] PTR unsigned char 
  1975 ;;		 -> ToSendDataBuffer(64), ReceivedDataBuffer(64), 
  1976 ;;  len             1   19[BANK0 ] unsigned char 
  1977 ;; Auto vars:     Size  Location     Type
  1978 ;;  ep              1   20[BANK0 ] unsigned char 
  1979 ;;  handle          2   21[BANK0 ] PTR volatile struct __BD
  1980 ;;		 -> BDT(32), NULL(0), 
  1981 ;; Return value:  Size  Location     Type
  1982 ;;                  2   16[BANK0 ] PTR void 
  1983 ;; Registers used:
  1984 ;;		wreg, fsr2l, fsr2h, status,2, status,0, prodl, prodh
  1985 ;; Tracked objects:
  1986 ;;		On entry : 0/0
  1987 ;;		On exit  : 0/0
  1988 ;;		Unchanged: 0/0
  1989 ;; Data sizes:     COMRAM   BANK0   BANK1   BANK2   BANK3   BANK4   BANK5   BANK6   BANK7
  1990 ;;      Params:         0       4       0       0       0       0       0       0       0
  1991 ;;      Locals:         0       3       0       0       0       0       0       0       0
  1992 ;;      Temps:          0       0       0       0       0       0       0       0       0
  1993 ;;      Totals:         0       7       0       0       0       0       0       0       0
  1994 ;;Total ram usage:        7 bytes
  1995 ;; Hardware stack levels used:    1
  1996 ;; Hardware stack levels required when called:   11
  1997 ;; This function calls:
  1998 ;;		Nothing
  1999 ;; This function is called by:
  2000 ;;		_APP_CustomHIDTasks
  2001 ;; This function uses a non-reentrant model
  2002 ;;
  2003                           
  2004                           	psect	text8
  2005  00148C                     __ptext8:
  2006                           	opt stack 0
  2007  00148C                     _USBTransferOnePacket:
  2008                           	opt stack 18
  2009                           
  2010                           ; BSR set to: 0
  2011                           ;incstack = 0
  2012                           ;USBTransferOnePacket@ep stored from wreg
  2013  00148C  0100               	movlb	0	; () banked
  2014  00148E  6F94               	movwf	USBTransferOnePacket@ep& (0+255),b
  2015                           
  2016                           ; BSR set to: 0
  2017                           ;usb_device.c: 997: volatile BDT_ENTRY* handle;
  2018                           ;usb_device.c: 1000: if(dir != 0)
  2019  001490  0100               	movlb	0	; () banked
  2020  001492  5190               	movf	USBTransferOnePacket@dir& (0+255),w,b
  2021  001494  B4D8               	btfsc	status,2,c
  2022  001496  D00A               	goto	l3184
  2023                           
  2024                           ; BSR set to: 0
  2025                           ;usb_device.c: 1001: {
  2026                           ;usb_device.c: 1003: handle = pBDTEntryIn[ep];
  2027  001498  0100               	movlb	0	; () banked
  2028  00149A  5194               	movf	USBTransferOnePacket@ep& (0+255),w,b
  2029  00149C  0D02               	mullw	2
  2030  00149E  0100               	movlb	0	; () banked
  2031  0014A0  0E68               	movlw	low _pBDTEntryIn
  2032  0014A2  24F3               	addwf	prodl,w,c
  2033  0014A4  6ED9               	movwf	fsr2l,c
  2034  0014A6  0100               	movlb	0	; () banked
  2035  0014A8  0E00               	movlw	high _pBDTEntryIn
  2036  0014AA  D009               	goto	L4
  2037  0014AC                     l3184:
  2038                           
  2039                           ; BSR set to: 0
  2040                           ;usb_device.c: 1005: else
  2041                           ;usb_device.c: 1006: {
  2042                           ;usb_device.c: 1008: handle = pBDTEntryOut[ep];
  2043  0014AC  0100               	movlb	0	; () banked
  2044  0014AE  5194               	movf	USBTransferOnePacket@ep& (0+255),w,b
  2045  0014B0  0D02               	mullw	2
  2046  0014B2  0100               	movlb	0	; () banked
  2047  0014B4  0E6C               	movlw	low _pBDTEntryOut
  2048  0014B6  24F3               	addwf	prodl,w,c
  2049  0014B8  6ED9               	movwf	fsr2l,c
  2050  0014BA  0100               	movlb	0	; () banked
  2051  0014BC  0E00               	movlw	high _pBDTEntryOut
  2052  0014BE                     L4:
  2053  0014BE  20F4               	addwfc	prodh,w,c
  2054  0014C0  6EDA               	movwf	fsr2h,c
  2055  0014C2  0100               	movlb	0	; () banked
  2056  0014C4  CFDE F095          	movff	postinc2,USBTransferOnePacket@handle
  2057  0014C8  0100               	movlb	0	; () banked
  2058  0014CA  CFDD F096          	movff	postdec2,USBTransferOnePacket@handle+1
  2059                           
  2060                           ; BSR set to: 0
  2061                           ;usb_device.c: 1009: }
  2062                           ;usb_device.c: 1013: if(handle == 0)
  2063                           
  2064                           ; BSR set to: 0
  2065  0014CE  0100               	movlb	0	; () banked
  2066  0014D0  5196               	movf	(USBTransferOnePacket@handle+1)& (0+255),w,b
  2067  0014D2  1195               	iorwf	USBTransferOnePacket@handle& (0+255),w,b
  2068  0014D4  A4D8               	btfss	status,2,c
  2069  0014D6  D007               	goto	l3192
  2070                           
  2071                           ; BSR set to: 0
  2072                           ;usb_device.c: 1014: {
  2073                           ;usb_device.c: 1015: return 0;
  2074  0014D8  0E00               	movlw	0
  2075  0014DA  0100               	movlb	0	; () banked
  2076  0014DC  6F91               	movwf	(?_USBTransferOnePacket+1)& (0+255),b
  2077  0014DE  0E00               	movlw	0
  2078  0014E0  0100               	movlb	0	; () banked
  2079  0014E2  6F90               	movwf	?_USBTransferOnePacket& (0+255),b
  2080  0014E4  D04E               	goto	l384
  2081  0014E6                     l3192:
  2082                           
  2083                           ; BSR set to: 0
  2084                           ;usb_device.c: 1016: }
  2085                           ;usb_device.c: 1029: handle->ADR = ((uint16_t)(data));
  2086  0014E6  0100               	movlb	0	; () banked
  2087  0014E8  EE20 F002          	lfsr	2,2
  2088  0014EC  0100               	movlb	0	; () banked
  2089  0014EE  5195               	movf	USBTransferOnePacket@handle& (0+255),w,b
  2090  0014F0  26D9               	addwf	fsr2l,f,c
  2091  0014F2  0100               	movlb	0	; () banked
  2092  0014F4  5196               	movf	(USBTransferOnePacket@handle+1)& (0+255),w,b
  2093  0014F6  22DA               	addwfc	fsr2h,f,c
  2094  0014F8  0100               	movlb	0	; () banked
  2095  0014FA  C091  FFDE         	movff	USBTransferOnePacket@data,postinc2
  2096  0014FE  0100               	movlb	0	; () banked
  2097  001500  C092  FFDD         	movff	USBTransferOnePacket@data+1,postdec2
  2098                           
  2099                           ;usb_device.c: 1030: handle->CNT = len;
  2100  001504  0100               	movlb	0	; () banked
  2101  001506  EE20 F001          	lfsr	2,1
  2102  00150A  0100               	movlb	0	; () banked
  2103  00150C  5195               	movf	USBTransferOnePacket@handle& (0+255),w,b
  2104  00150E  26D9               	addwf	fsr2l,f,c
  2105  001510  0100               	movlb	0	; () banked
  2106  001512  5196               	movf	(USBTransferOnePacket@handle+1)& (0+255),w,b
  2107  001514  22DA               	addwfc	fsr2h,f,c
  2108  001516  0100               	movlb	0	; () banked
  2109  001518  C093  FFDF         	movff	USBTransferOnePacket@len,indf2
  2110                           
  2111                           ; BSR set to: 0
  2112                           ;usb_device.c: 1031: handle->STAT.Val &= 0x40;
  2113  00151C  C095  FFD9         	movff	USBTransferOnePacket@handle,fsr2l
  2114  001520  C096  FFDA         	movff	USBTransferOnePacket@handle+1,fsr2h
  2115  001524  0E40               	movlw	64
  2116  001526  16DF               	andwf	indf2,f,c
  2117                           
  2118                           ; BSR set to: 0
  2119                           ;usb_device.c: 1032: handle->STAT.Val |= (0x08 & 0x08);
  2120  001528  C095  FFD9         	movff	USBTransferOnePacket@handle,fsr2l
  2121  00152C  C096  FFDA         	movff	USBTransferOnePacket@handle+1,fsr2h
  2122  001530  0E00               	movlw	0
  2123  001532  86DB               	bsf	plusw2,3,c
  2124                           
  2125                           ; BSR set to: 0
  2126                           ;usb_device.c: 1033: handle->STAT.Val |= 0x80;
  2127  001534  C095  FFD9         	movff	USBTransferOnePacket@handle,fsr2l
  2128  001538  C096  FFDA         	movff	USBTransferOnePacket@handle+1,fsr2h
  2129  00153C  0E00               	movlw	0
  2130  00153E  8EDB               	bsf	plusw2,7,c
  2131                           
  2132                           ; BSR set to: 0
  2133                           ;usb_device.c: 1036: if(dir != 0)
  2134  001540  0100               	movlb	0	; () banked
  2135  001542  5190               	movf	USBTransferOnePacket@dir& (0+255),w,b
  2136  001544  B4D8               	btfsc	status,2,c
  2137  001546  D00A               	goto	l3204
  2138                           
  2139                           ; BSR set to: 0
  2140                           ;usb_device.c: 1037: {
  2141                           ;usb_device.c: 1039: {((uint8_t_VAL*)&pBDTEntryIn[ep])->Val ^= 0x0004;};
  2142  001548  0100               	movlb	0	; () banked
  2143  00154A  5194               	movf	USBTransferOnePacket@ep& (0+255),w,b
  2144  00154C  0D02               	mullw	2
  2145  00154E  0100               	movlb	0	; () banked
  2146  001550  0E68               	movlw	low _pBDTEntryIn
  2147  001552  24F3               	addwf	prodl,w,c
  2148  001554  6ED9               	movwf	fsr2l,c
  2149  001556  0100               	movlb	0	; () banked
  2150  001558  0E00               	movlw	high _pBDTEntryIn
  2151  00155A  D009               	goto	L5
  2152  00155C                     l3204:
  2153                           
  2154                           ; BSR set to: 0
  2155                           ;usb_device.c: 1041: else
  2156                           ;usb_device.c: 1042: {
  2157                           ;usb_device.c: 1044: {((uint8_t_VAL*)&pBDTEntryOut[ep])->Val ^= 0x0004;};
  2158  00155C  0100               	movlb	0	; () banked
  2159  00155E  5194               	movf	USBTransferOnePacket@ep& (0+255),w,b
  2160  001560  0D02               	mullw	2
  2161  001562  0100               	movlb	0	; () banked
  2162  001564  0E6C               	movlw	low _pBDTEntryOut
  2163  001566  24F3               	addwf	prodl,w,c
  2164  001568  6ED9               	movwf	fsr2l,c
  2165  00156A  0100               	movlb	0	; () banked
  2166  00156C  0E00               	movlw	high _pBDTEntryOut
  2167  00156E                     L5:
  2168  00156E  20F4               	addwfc	prodh,w,c
  2169  001570  6EDA               	movwf	fsr2h,c
  2170  001572  0E04               	movlw	4
  2171  001574  1ADF               	xorwf	indf2,f,c
  2172                           
  2173                           ; BSR set to: 0
  2174                           ;usb_device.c: 1045: }
  2175                           ;usb_device.c: 1046: return (void*)handle;
  2176                           
  2177                           ; BSR set to: 0
  2178  001576  0100               	movlb	0	; () banked
  2179  001578  C096  F091         	movff	USBTransferOnePacket@handle+1,?_USBTransferOnePacket+1
  2180  00157C  0100               	movlb	0	; () banked
  2181  00157E  C095  F090         	movff	USBTransferOnePacket@handle,?_USBTransferOnePacket
  2182  001582                     l384:
  2183                           
  2184                           ; BSR set to: 0
  2185  001582  0012               	return	
  2186  001584                     __end_of_USBTransferOnePacket:
  2187                           	opt stack 0
  2188                           tblptru	equ	0xFF8
  2189                           prodh	equ	0xFF4
  2190                           prodl	equ	0xFF3
  2191                           intcon	equ	0xFF2
  2192                           postinc0	equ	0xFEE
  2193                           wreg	equ	0xFE8
  2194                           indf2	equ	0xFDF
  2195                           postinc2	equ	0xFDE
  2196                           postdec2	equ	0xFDD
  2197                           plusw2	equ	0xFDB
  2198                           fsr2h	equ	0xFDA
  2199                           fsr2l	equ	0xFD9
  2200                           status	equ	0xFD8
  2201                           
  2202 ;; *************** function _ConvertADC *****************
  2203 ;; Defined at:
  2204 ;;		line 22 in file "C:\Program Files (x86)\Microchip\xc8\v1.33\sources\pic18\plib\ADC\adcconv.c"
  2205 ;; Parameters:    Size  Location     Type
  2206 ;;		None
  2207 ;; Auto vars:     Size  Location     Type
  2208 ;;		None
  2209 ;; Return value:  Size  Location     Type
  2210 ;;		None               void
  2211 ;; Registers used:
  2212 ;;		None
  2213 ;; Tracked objects:
  2214 ;;		On entry : 0/0
  2215 ;;		On exit  : 0/0
  2216 ;;		Unchanged: 0/0
  2217 ;; Data sizes:     COMRAM   BANK0   BANK1   BANK2   BANK3   BANK4   BANK5   BANK6   BANK7
  2218 ;;      Params:         0       0       0       0       0       0       0       0       0
  2219 ;;      Locals:         0       0       0       0       0       0       0       0       0
  2220 ;;      Temps:          0       0       0       0       0       0       0       0       0
  2221 ;;      Totals:         0       0       0       0       0       0       0       0       0
  2222 ;;Total ram usage:        0 bytes
  2223 ;; Hardware stack levels used:    1
  2224 ;; Hardware stack levels required when called:   11
  2225 ;; This function calls:
  2226 ;;		Nothing
  2227 ;; This function is called by:
  2228 ;;		_APP_CustomHIDTasks
  2229 ;; This function uses a non-reentrant model
  2230 ;;
  2231                           
  2232                           	psect	text9
  2233  0022DE                     __ptext9:
  2234                           	opt stack 0
  2235  0022DE                     _ConvertADC:
  2236                           	opt stack 18
  2237                           
  2238                           ; BSR set to: 0
  2239                           ;incstack = 0
  2240  0022DE  82C2               	bsf	4034,1,c	;volatile
  2241  0022E0  0012               	return	
  2242  0022E2                     __end_of_ConvertADC:
  2243                           	opt stack 0
  2244                           tblptru	equ	0xFF8
  2245                           prodh	equ	0xFF4
  2246                           prodl	equ	0xFF3
  2247                           intcon	equ	0xFF2
  2248                           postinc0	equ	0xFEE
  2249                           wreg	equ	0xFE8
  2250                           indf2	equ	0xFDF
  2251                           postinc2	equ	0xFDE
  2252                           postdec2	equ	0xFDD
  2253                           plusw2	equ	0xFDB
  2254                           fsr2h	equ	0xFDA
  2255                           fsr2l	equ	0xFD9
  2256                           status	equ	0xFD8
  2257                           
  2258 ;; *************** function _BusyADC *****************
  2259 ;; Defined at:
  2260 ;;		line 26 in file "C:\Program Files (x86)\Microchip\xc8\v1.33\sources\pic18\plib\ADC\adcbusy.c"
  2261 ;; Parameters:    Size  Location     Type
  2262 ;;		None
  2263 ;; Auto vars:     Size  Location     Type
  2264 ;;		None
  2265 ;; Return value:  Size  Location     Type
  2266 ;;                  1    wreg      unsigned char 
  2267 ;; Registers used:
  2268 ;;		wreg
  2269 ;; Tracked objects:
  2270 ;;		On entry : 0/0
  2271 ;;		On exit  : 0/0
  2272 ;;		Unchanged: 0/0
  2273 ;; Data sizes:     COMRAM   BANK0   BANK1   BANK2   BANK3   BANK4   BANK5   BANK6   BANK7
  2274 ;;      Params:         0       0       0       0       0       0       0       0       0
  2275 ;;      Locals:         0       0       0       0       0       0       0       0       0
  2276 ;;      Temps:          0       0       0       0       0       0       0       0       0
  2277 ;;      Totals:         0       0       0       0       0       0       0       0       0
  2278 ;;Total ram usage:        0 bytes
  2279 ;; Hardware stack levels used:    1
  2280 ;; Hardware stack levels required when called:   11
  2281 ;; This function calls:
  2282 ;;		Nothing
  2283 ;; This function is called by:
  2284 ;;		_APP_CustomHIDTasks
  2285 ;; This function uses a non-reentrant model
  2286 ;;
  2287                           
  2288                           	psect	text10
  2289  0022D2                     __ptext10:
  2290                           	opt stack 0
  2291  0022D2                     _BusyADC:
  2292                           	opt stack 18
  2293                           
  2294                           ;incstack = 0
  2295  0022D2  A2C2               	btfss	4034,1,c	;volatile
  2296  0022D4  D002               	goto	u2410
  2297  0022D6  0E01               	movlw	1
  2298  0022D8  D001               	goto	l633
  2299  0022DA                     u2410:
  2300  0022DA  0E00               	movlw	0
  2301  0022DC                     l633:
  2302  0022DC  0012               	return	
  2303  0022DE                     __end_of_BusyADC:
  2304                           	opt stack 0
  2305                           tblptru	equ	0xFF8
  2306                           prodh	equ	0xFF4
  2307                           prodl	equ	0xFF3
  2308                           intcon	equ	0xFF2
  2309                           postinc0	equ	0xFEE
  2310                           wreg	equ	0xFE8
  2311                           indf2	equ	0xFDF
  2312                           postinc2	equ	0xFDE
  2313                           postdec2	equ	0xFDD
  2314                           plusw2	equ	0xFDB
  2315                           fsr2h	equ	0xFDA
  2316                           fsr2l	equ	0xFD9
  2317                           status	equ	0xFD8
  2318                           
  2319 ;; *************** function _SYS_InterruptLow *****************
  2320 ;; Defined at:
  2321 ;;		line 51 in file "../src/system.c"
  2322 ;; Parameters:    Size  Location     Type
  2323 ;;		None
  2324 ;; Auto vars:     Size  Location     Type
  2325 ;;		None
  2326 ;; Return value:  Size  Location     Type
  2327 ;;		None               void
  2328 ;; Registers used:
  2329 ;;		None
  2330 ;; Tracked objects:
  2331 ;;		On entry : 0/0
  2332 ;;		On exit  : 0/0
  2333 ;;		Unchanged: 0/0
  2334 ;; Data sizes:     COMRAM   BANK0   BANK1   BANK2   BANK3   BANK4   BANK5   BANK6   BANK7
  2335 ;;      Params:         0       0       0       0       0       0       0       0       0
  2336 ;;      Locals:         0       0       0       0       0       0       0       0       0
  2337 ;;      Temps:         17       0       0       0       0       0       0       0       0
  2338 ;;      Totals:        17       0       0       0       0       0       0       0       0
  2339 ;;Total ram usage:       17 bytes
  2340 ;; Hardware stack levels used:    1
  2341 ;; Hardware stack levels required when called:   10
  2342 ;; This function calls:
  2343 ;;		Nothing
  2344 ;; This function is called by:
  2345 ;;		Interrupt level 1
  2346 ;; This function uses a non-reentrant model
  2347 ;;
  2348                           
  2349                           	psect	intcodelo
  2350  000018                     __pintcodelo:
  2351                           	opt stack 0
  2352  000018                     _SYS_InterruptLow:
  2353                           	opt stack 17
  2354                           
  2355                           ;incstack = 0
  2356  000018  CFD8 F001          	movff	status,??_SYS_InterruptLow
  2357  00001C  CFE8 F002          	movff	wreg,??_SYS_InterruptLow+1
  2358  000020  CFE0 F003          	movff	bsr,??_SYS_InterruptLow+2
  2359  000024  CFFA F004          	movff	pclath,??_SYS_InterruptLow+3
  2360  000028  CFFB F005          	movff	pclatu,??_SYS_InterruptLow+4
  2361  00002C  CFE9 F006          	movff	fsr0l,??_SYS_InterruptLow+5
  2362  000030  CFEA F007          	movff	fsr0h,??_SYS_InterruptLow+6
  2363  000034  CFE1 F008          	movff	fsr1l,??_SYS_InterruptLow+7
  2364  000038  CFE2 F009          	movff	fsr1h,??_SYS_InterruptLow+8
  2365  00003C  CFD9 F00A          	movff	fsr2l,??_SYS_InterruptLow+9
  2366  000040  CFDA F00B          	movff	fsr2h,??_SYS_InterruptLow+10
  2367  000044  CFF3 F00C          	movff	prodl,??_SYS_InterruptLow+11
  2368  000048  CFF4 F00D          	movff	prodh,??_SYS_InterruptLow+12
  2369  00004C  CFF6 F00E          	movff	tblptrl,??_SYS_InterruptLow+13
  2370  000050  CFF7 F00F          	movff	tblptrh,??_SYS_InterruptLow+14
  2371  000054  CFF8 F010          	movff	tblptru,??_SYS_InterruptLow+15
  2372  000058  CFF5 F011          	movff	tablat,??_SYS_InterruptLow+16
  2373  00005C  C011  FFF5         	movff	??_SYS_InterruptLow+16,tablat
  2374  000060  C010  FFF8         	movff	??_SYS_InterruptLow+15,tblptru
  2375  000064  C00F  FFF7         	movff	??_SYS_InterruptLow+14,tblptrh
  2376  000068  C00E  FFF6         	movff	??_SYS_InterruptLow+13,tblptrl
  2377  00006C  C00D  FFF4         	movff	??_SYS_InterruptLow+12,prodh
  2378  000070  C00C  FFF3         	movff	??_SYS_InterruptLow+11,prodl
  2379  000074  C00B  FFDA         	movff	??_SYS_InterruptLow+10,fsr2h
  2380  000078  C00A  FFD9         	movff	??_SYS_InterruptLow+9,fsr2l
  2381  00007C  C009  FFE2         	movff	??_SYS_InterruptLow+8,fsr1h
  2382  000080  C008  FFE1         	movff	??_SYS_InterruptLow+7,fsr1l
  2383  000084  C007  FFEA         	movff	??_SYS_InterruptLow+6,fsr0h
  2384  000088  C006  FFE9         	movff	??_SYS_InterruptLow+5,fsr0l
  2385  00008C  C005  FFFB         	movff	??_SYS_InterruptLow+4,pclatu
  2386  000090  C004  FFFA         	movff	??_SYS_InterruptLow+3,pclath
  2387  000094  C003  FFE0         	movff	??_SYS_InterruptLow+2,bsr
  2388  000098  C002  FFE8         	movff	??_SYS_InterruptLow+1,wreg
  2389  00009C  C001  FFD8         	movff	??_SYS_InterruptLow,status
  2390  0000A0  0010               	retfie	
  2391  0000A2                     __end_of_SYS_InterruptLow:
  2392                           	opt stack 0
  2393                           pclatu	equ	0xFFB
  2394                           pclath	equ	0xFFA
  2395                           tblptru	equ	0xFF8
  2396                           tblptrh	equ	0xFF7
  2397                           tblptrl	equ	0xFF6
  2398                           tablat	equ	0xFF5
  2399                           prodh	equ	0xFF4
  2400                           prodl	equ	0xFF3
  2401                           intcon	equ	0xFF2
  2402                           postinc0	equ	0xFEE
  2403                           fsr0h	equ	0xFEA
  2404                           fsr0l	equ	0xFE9
  2405                           wreg	equ	0xFE8
  2406                           fsr1h	equ	0xFE2
  2407                           fsr1l	equ	0xFE1
  2408                           bsr	equ	0xFE0
  2409                           indf2	equ	0xFDF
  2410                           postinc2	equ	0xFDE
  2411                           postdec2	equ	0xFDD
  2412                           plusw2	equ	0xFDB
  2413                           fsr2h	equ	0xFDA
  2414                           fsr2l	equ	0xFD9
  2415                           status	equ	0xFD8
  2416                           
  2417 ;; *************** function _SYS_InterruptHigh *****************
  2418 ;; Defined at:
  2419 ;;		line 42 in file "../src/system.c"
  2420 ;; Parameters:    Size  Location     Type
  2421 ;;		None
  2422 ;; Auto vars:     Size  Location     Type
  2423 ;;		None
  2424 ;; Return value:  Size  Location     Type
  2425 ;;		None               void
  2426 ;; Registers used:
  2427 ;;		wreg, fsr1l, fsr1h, fsr2l, fsr2h, status,2, status,0, tblptrl, tblptrh, tblptru, prodl, prodh, cstack
  2428 ;; Tracked objects:
  2429 ;;		On entry : 0/0
  2430 ;;		On exit  : 0/0
  2431 ;;		Unchanged: 0/0
  2432 ;; Data sizes:     COMRAM   BANK0   BANK1   BANK2   BANK3   BANK4   BANK5   BANK6   BANK7
  2433 ;;      Params:         0       0       0       0       0       0       0       0       0
  2434 ;;      Locals:         0       0       0       0       0       0       0       0       0
  2435 ;;      Temps:          0      14       0       0       0       0       0       0       0
  2436 ;;      Totals:         0      14       0       0       0       0       0       0       0
  2437 ;;Total ram usage:       14 bytes
  2438 ;; Hardware stack levels used:    1
  2439 ;; Hardware stack levels required when called:    9
  2440 ;; This function calls:
  2441 ;;		_USBDeviceTasks
  2442 ;; This function is called by:
  2443 ;;		Interrupt level 2
  2444 ;; This function uses a non-reentrant model
  2445 ;;
  2446                           
  2447                           	psect	intcode
  2448  000008                     __pintcode:
  2449                           	opt stack 0
  2450  000008                     _SYS_InterruptHigh:
  2451                           	opt stack 17
  2452                           
  2453                           ;incstack = 0
  2454  000008  CFFA F082          	movff	pclath,??_SYS_InterruptHigh
  2455  00000C  CFFB F083          	movff	pclatu,??_SYS_InterruptHigh+1
  2456  000010  CFE9 F084          	movff	fsr0l,??_SYS_InterruptHigh+2
  2457  000014  EDED  F00F         	call	int_func,f	;refresh shadow registers
  2458                           pclatu	equ	0xFFB
  2459                           pclath	equ	0xFFA
  2460                           tblptru	equ	0xFF8
  2461                           tblptrh	equ	0xFF7
  2462                           tblptrl	equ	0xFF6
  2463                           tablat	equ	0xFF5
  2464                           prodh	equ	0xFF4
  2465                           prodl	equ	0xFF3
  2466                           intcon	equ	0xFF2
  2467                           postinc0	equ	0xFEE
  2468                           fsr0h	equ	0xFEA
  2469                           fsr0l	equ	0xFE9
  2470                           wreg	equ	0xFE8
  2471                           fsr1h	equ	0xFE2
  2472                           fsr1l	equ	0xFE1
  2473                           bsr	equ	0xFE0
  2474                           indf2	equ	0xFDF
  2475                           postinc2	equ	0xFDE
  2476                           postdec2	equ	0xFDD
  2477                           plusw2	equ	0xFDB
  2478                           fsr2h	equ	0xFDA
  2479                           fsr2l	equ	0xFD9
  2480                           status	equ	0xFD8
  2481                           
  2482                           	psect	intcode_body
  2483  001FDA                     __pintcode_body:
  2484                           	opt stack 17
  2485  001FDA                     int_func:
  2486                           	opt stack 17
  2487  001FDA  0006               	pop		; remove dummy address from shadow register refresh
  2488  001FDC  CFEA F085          	movff	fsr0h,??_SYS_InterruptHigh+3
  2489  001FE0  CFE1 F086          	movff	fsr1l,??_SYS_InterruptHigh+4
  2490  001FE4  CFE2 F087          	movff	fsr1h,??_SYS_InterruptHigh+5
  2491  001FE8  CFD9 F088          	movff	fsr2l,??_SYS_InterruptHigh+6
  2492  001FEC  CFDA F089          	movff	fsr2h,??_SYS_InterruptHigh+7
  2493  001FF0  CFF3 F08A          	movff	prodl,??_SYS_InterruptHigh+8
  2494  001FF4  CFF4 F08B          	movff	prodh,??_SYS_InterruptHigh+9
  2495  001FF8  CFF6 F08C          	movff	tblptrl,??_SYS_InterruptHigh+10
  2496  001FFC  CFF7 F08D          	movff	tblptrh,??_SYS_InterruptHigh+11
  2497  002000  CFF8 F08E          	movff	tblptru,??_SYS_InterruptHigh+12
  2498  002004  CFF5 F08F          	movff	tablat,??_SYS_InterruptHigh+13
  2499                           
  2500                           ;system.c: 48: USBDeviceTasks();
  2501  002008  ECA4  F008         	call	_USBDeviceTasks	;wreg free
  2502  00200C  C08F  FFF5         	movff	??_SYS_InterruptHigh+13,tablat
  2503  002010  C08E  FFF8         	movff	??_SYS_InterruptHigh+12,tblptru
  2504  002014  C08D  FFF7         	movff	??_SYS_InterruptHigh+11,tblptrh
  2505  002018  C08C  FFF6         	movff	??_SYS_InterruptHigh+10,tblptrl
  2506  00201C  C08B  FFF4         	movff	??_SYS_InterruptHigh+9,prodh
  2507  002020  C08A  FFF3         	movff	??_SYS_InterruptHigh+8,prodl
  2508  002024  C089  FFDA         	movff	??_SYS_InterruptHigh+7,fsr2h
  2509  002028  C088  FFD9         	movff	??_SYS_InterruptHigh+6,fsr2l
  2510  00202C  C087  FFE2         	movff	??_SYS_InterruptHigh+5,fsr1h
  2511  002030  C086  FFE1         	movff	??_SYS_InterruptHigh+4,fsr1l
  2512  002034  C085  FFEA         	movff	??_SYS_InterruptHigh+3,fsr0h
  2513  002038  C084  FFE9         	movff	??_SYS_InterruptHigh+2,fsr0l
  2514  00203C  C083  FFFB         	movff	??_SYS_InterruptHigh+1,pclatu
  2515  002040  C082  FFFA         	movff	??_SYS_InterruptHigh,pclath
  2516  002044  0011               	retfie		f
  2517  002046                     __end_of_SYS_InterruptHigh:
  2518                           	opt stack 0
  2519                           pclatu	equ	0xFFB
  2520                           pclath	equ	0xFFA
  2521                           tblptru	equ	0xFF8
  2522                           tblptrh	equ	0xFF7
  2523                           tblptrl	equ	0xFF6
  2524                           tablat	equ	0xFF5
  2525                           prodh	equ	0xFF4
  2526                           prodl	equ	0xFF3
  2527                           intcon	equ	0xFF2
  2528                           postinc0	equ	0xFEE
  2529                           fsr0h	equ	0xFEA
  2530                           fsr0l	equ	0xFE9
  2531                           wreg	equ	0xFE8
  2532                           fsr1h	equ	0xFE2
  2533                           fsr1l	equ	0xFE1
  2534                           bsr	equ	0xFE0
  2535                           indf2	equ	0xFDF
  2536                           postinc2	equ	0xFDE
  2537                           postdec2	equ	0xFDD
  2538                           plusw2	equ	0xFDB
  2539                           fsr2h	equ	0xFDA
  2540                           fsr2l	equ	0xFD9
  2541                           status	equ	0xFD8
  2542                           
  2543 ;; *************** function _USBDeviceTasks *****************
  2544 ;; Defined at:
  2545 ;;		line 489 in file "../src/usb/src/usb_device.c"
  2546 ;; Parameters:    Size  Location     Type
  2547 ;;		None
  2548 ;; Auto vars:     Size  Location     Type
  2549 ;;  i               1    1[BANK0 ] unsigned char 
  2550 ;; Return value:  Size  Location     Type
  2551 ;;		None               void
  2552 ;; Registers used:
  2553 ;;		wreg, fsr1l, fsr1h, fsr2l, fsr2h, status,2, status,0, tblptrl, tblptrh, tblptru, prodl, prodh, cstack
  2554 ;; Tracked objects:
  2555 ;;		On entry : 0/0
  2556 ;;		On exit  : 0/0
  2557 ;;		Unchanged: 0/0
  2558 ;; Data sizes:     COMRAM   BANK0   BANK1   BANK2   BANK3   BANK4   BANK5   BANK6   BANK7
  2559 ;;      Params:         0       0       0       0       0       0       0       0       0
  2560 ;;      Locals:         0       1       0       0       0       0       0       0       0
  2561 ;;      Temps:          0       0       0       0       0       0       0       0       0
  2562 ;;      Totals:         0       1       0       0       0       0       0       0       0
  2563 ;;Total ram usage:        1 bytes
  2564 ;; Hardware stack levels used:    1
  2565 ;; Hardware stack levels required when called:    8
  2566 ;; This function calls:
  2567 ;;		_USBCtrlEPAllowStatusStage
  2568 ;;		_USBCtrlEPService
  2569 ;;		_USBStallHandler
  2570 ;;		_USBSuspend
  2571 ;;		_USBWakeFromSuspend
  2572 ;;		_USER_USB_CALLBACK_EVENT_HANDLER
  2573 ;;		i2_USBDeviceInit
  2574 ;; This function is called by:
  2575 ;;		_SYS_InterruptHigh
  2576 ;; This function uses a non-reentrant model
  2577 ;;
  2578                           
  2579                           	psect	text13
  2580  001148                     __ptext13:
  2581                           	opt stack 0
  2582  001148                     _USBDeviceTasks:
  2583                           	opt stack 17
  2584                           
  2585                           ;usb_device.c: 491: uint8_t i;
  2586                           ;usb_device.c: 602: if(USBDeviceState == ATTACHED_STATE)
  2587                           
  2588                           ;incstack = 0
  2589  001148  0100               	movlb	0	; () banked
  2590  00114A  0578               	decf	_USBDeviceState& (0+255),w,b	;volatile
  2591  00114C  B4D8               	btfsc	status,2,c
  2592                           
  2593                           ; BSR set to: 0
  2594                           ;usb_device.c: 603: {
  2595                           ;usb_device.c: 613: if(!UCONbits.SE0)
  2596  00114E  BA6D               	btfsc	3949,5,c	;volatile
  2597  001150  D007               	goto	i2l4558
  2598                           
  2599                           ; BSR set to: 0
  2600                           ;usb_device.c: 614: {
  2601                           ;usb_device.c: 615: {UIR = 0;};
  2602  001152  0E00               	movlw	0
  2603  001154  6E68               	movwf	3944,c	;volatile
  2604                           
  2605                           ; BSR set to: 0
  2606                           ;usb_device.c: 619: UIEbits.URSTIE = 1;
  2607  001156  8069               	bsf	3945,0,c	;volatile
  2608                           
  2609                           ; BSR set to: 0
  2610                           ;usb_device.c: 620: UIEbits.IDLEIE = 1;
  2611  001158  8869               	bsf	3945,4,c	;volatile
  2612                           
  2613                           ;usb_device.c: 621: USBDeviceState = POWERED_STATE;
  2614  00115A  0E02               	movlw	2
  2615  00115C  0100               	movlb	0	; () banked
  2616  00115E  6F78               	movwf	_USBDeviceState& (0+255),b	;volatile
  2617  001160                     i2l4558:
  2618                           
  2619                           ; BSR set to: 0
  2620                           ;usb_device.c: 622: }
  2621                           ;usb_device.c: 623: }
  2622                           ;usb_device.c: 639: if(UIRbits.ACTVIF && UIEbits.ACTVIE)
  2623  001160  B468               	btfsc	3944,2,c	;volatile
  2624                           
  2625                           ; BSR set to: 0
  2626  001162  A469               	btfss	3945,2,c	;volatile
  2627  001164  D003               	goto	i2l4566
  2628                           
  2629                           ; BSR set to: 0
  2630                           ;usb_device.c: 640: {
  2631                           ;usb_device.c: 641: (UIR &= 0xFB);
  2632  001166  9468               	bcf	3944,2,c	;volatile
  2633                           
  2634                           ; BSR set to: 0
  2635                           ;usb_device.c: 645: USBWakeFromSuspend();
  2636  001168  ECFD  F010         	call	_USBWakeFromSuspend	;wreg free
  2637  00116C                     i2l4566:
  2638                           
  2639                           ;usb_device.c: 647: }
  2640                           ;usb_device.c: 652: if(UCONbits.SUSPND==1)
  2641  00116C  B26D               	btfsc	3949,1,c	;volatile
  2642  00116E  D085               	goto	i2l365
  2643                           
  2644                           ;usb_device.c: 656: }
  2645                           ;usb_device.c: 668: if(UIRbits.URSTIF && UIEbits.URSTIE)
  2646                           
  2647                           ;usb_device.c: 655: return;
  2648                           
  2649                           ;usb_device.c: 653: {
  2650                           ;usb_device.c: 654: {PIR2bits.USBIF = 0;};
  2651  001170  B068               	btfsc	3944,0,c	;volatile
  2652  001172  A069               	btfss	3945,0,c	;volatile
  2653  001174  D007               	goto	i2l4580
  2654                           
  2655                           ;usb_device.c: 669: {
  2656                           ;usb_device.c: 670: USBDeviceInit();
  2657  001176  EC5D  F007         	call	i2_USBDeviceInit	;wreg free
  2658                           
  2659                           ;usb_device.c: 674: {PIE2bits.USBIE = 1;};
  2660  00117A  8AA0               	bsf	4000,5,c	;volatile
  2661                           
  2662                           ;usb_device.c: 676: USBDeviceState = DEFAULT_STATE;
  2663  00117C  0E04               	movlw	4
  2664  00117E  0100               	movlb	0	; () banked
  2665  001180  6F78               	movwf	_USBDeviceState& (0+255),b	;volatile
  2666                           
  2667                           ; BSR set to: 0
  2668                           ;usb_device.c: 686: (UIR &= 0xFE);
  2669  001182  9068               	bcf	3944,0,c	;volatile
  2670  001184                     i2l4580:
  2671                           
  2672                           ;usb_device.c: 687: }
  2673                           ;usb_device.c: 692: if(UIRbits.IDLEIF && UIEbits.IDLEIE)
  2674  001184  B868               	btfsc	3944,4,c	;volatile
  2675  001186  A869               	btfss	3945,4,c	;volatile
  2676  001188  D003               	goto	i2l4588
  2677                           
  2678                           ;usb_device.c: 693: {
  2679                           ;usb_device.c: 698: USBSuspend();
  2680  00118A  EC2A  F011         	call	_USBSuspend	;wreg free
  2681                           
  2682                           ;usb_device.c: 701: (UIR &= 0xEF);
  2683  00118E  9868               	bcf	3944,4,c	;volatile
  2684  001190                     i2l4588:
  2685                           
  2686                           ;usb_device.c: 702: }
  2687                           ;usb_device.c: 704: if(UIRbits.SOFIF)
  2688  001190  AC68               	btfss	3944,6,c	;volatile
  2689  001192  D018               	goto	i2l4604
  2690                           
  2691                           ;usb_device.c: 705: {
  2692                           ;usb_device.c: 706: if(UIEbits.SOFIE)
  2693  001194  AC69               	btfss	3945,6,c	;volatile
  2694  001196  D00E               	goto	i2l4594
  2695                           
  2696                           ;usb_device.c: 707: {
  2697                           ;usb_device.c: 708: USER_USB_CALLBACK_EVENT_HANDLER(EVENT_SOF,0,1);
  2698  001198  0E00               	movlw	0
  2699  00119A  6E21               	movwf	USER_USB_CALLBACK_EVENT_HANDLER@event+1,c
  2700  00119C  0E73               	movlw	115
  2701  00119E  6E20               	movwf	USER_USB_CALLBACK_EVENT_HANDLER@event,c
  2702  0011A0  0E00               	movlw	0
  2703  0011A2  6E23               	movwf	USER_USB_CALLBACK_EVENT_HANDLER@pdata+1,c
  2704  0011A4  0E00               	movlw	0
  2705  0011A6  6E22               	movwf	USER_USB_CALLBACK_EVENT_HANDLER@pdata,c
  2706  0011A8  0E00               	movlw	0
  2707  0011AA  6E25               	movwf	USER_USB_CALLBACK_EVENT_HANDLER@size+1,c
  2708  0011AC  0E01               	movlw	1
  2709  0011AE  6E24               	movwf	USER_USB_CALLBACK_EVENT_HANDLER@size,c
  2710  0011B0  ECAF  F00F         	call	_USER_USB_CALLBACK_EVENT_HANDLER	;wreg free
  2711  0011B4                     i2l4594:
  2712                           
  2713                           ;usb_device.c: 709: }
  2714                           ;usb_device.c: 710: (UIR &= 0xBF);
  2715  0011B4  9C68               	bcf	3944,6,c	;volatile
  2716                           
  2717                           ;usb_device.c: 735: if(USBStatusStageTimeoutCounter != 0u)
  2718  0011B6  5046               	movf	_USBStatusStageTimeoutCounter,w,c	;volatile
  2719  0011B8  A4D8               	btfss	status,2,c
  2720                           
  2721                           ;usb_device.c: 736: {
  2722                           ;usb_device.c: 737: USBStatusStageTimeoutCounter--;
  2723  0011BA  0646               	decf	_USBStatusStageTimeoutCounter,f,c	;volatile
  2724                           
  2725                           ;usb_device.c: 738: }
  2726                           ;usb_device.c: 744: if(USBStatusStageTimeoutCounter == 0)
  2727  0011BC  6646               	tstfsz	_USBStatusStageTimeoutCounter,c	;volatile
  2728  0011BE  D002               	goto	i2l4604
  2729                           
  2730                           ;usb_device.c: 745: {
  2731                           ;usb_device.c: 746: USBCtrlEPAllowStatusStage();
  2732  0011C0  ECD3  F00D         	call	_USBCtrlEPAllowStatusStage	;wreg free
  2733  0011C4                     i2l4604:
  2734                           
  2735                           ;usb_device.c: 747: }
  2736                           ;usb_device.c: 749: }
  2737                           ;usb_device.c: 751: if(UIRbits.STALLIF && UIEbits.STALLIE)
  2738  0011C4  BA68               	btfsc	3944,5,c	;volatile
  2739  0011C6  AA69               	btfss	3945,5,c	;volatile
  2740  0011C8  D002               	goto	i2l4610
  2741                           
  2742                           ;usb_device.c: 752: {
  2743                           ;usb_device.c: 753: USBStallHandler();
  2744  0011CA  EC74  F010         	call	_USBStallHandler	;wreg free
  2745  0011CE                     i2l4610:
  2746                           
  2747                           ;usb_device.c: 754: }
  2748                           ;usb_device.c: 756: if(UIRbits.UERRIF && UIEbits.UERRIE)
  2749  0011CE  B268               	btfsc	3944,1,c	;volatile
  2750  0011D0  A269               	btfss	3945,1,c	;volatile
  2751  0011D2  D00F               	goto	i2l4618
  2752                           
  2753                           ;usb_device.c: 757: {
  2754                           ;usb_device.c: 758: USER_USB_CALLBACK_EVENT_HANDLER(EVENT_BUS_ERROR,0,1);
  2755  0011D4  0E7F               	movlw	127
  2756  0011D6  6E21               	movwf	USER_USB_CALLBACK_EVENT_HANDLER@event+1,c
  2757  0011D8  6820               	setf	USER_USB_CALLBACK_EVENT_HANDLER@event,c
  2758  0011DA  0E00               	movlw	0
  2759  0011DC  6E23               	movwf	USER_USB_CALLBACK_EVENT_HANDLER@pdata+1,c
  2760  0011DE  0E00               	movlw	0
  2761  0011E0  6E22               	movwf	USER_USB_CALLBACK_EVENT_HANDLER@pdata,c
  2762  0011E2  0E00               	movlw	0
  2763  0011E4  6E25               	movwf	USER_USB_CALLBACK_EVENT_HANDLER@size+1,c
  2764  0011E6  0E01               	movlw	1
  2765  0011E8  6E24               	movwf	USER_USB_CALLBACK_EVENT_HANDLER@size,c
  2766  0011EA  ECAF  F00F         	call	_USER_USB_CALLBACK_EVENT_HANDLER	;wreg free
  2767                           
  2768                           ;usb_device.c: 759: {UEIR = 0;};
  2769  0011EE  0E00               	movlw	0
  2770  0011F0  6E6A               	movwf	3946,c	;volatile
  2771  0011F2                     i2l4618:
  2772                           
  2773                           ;usb_device.c: 767: }
  2774                           ;usb_device.c: 774: if(USBDeviceState < DEFAULT_STATE)
  2775  0011F2  0E04               	movlw	4
  2776  0011F4  0100               	movlb	0	; () banked
  2777  0011F6  5D78               	subwf	_USBDeviceState& (0+255),w,b	;volatile
  2778  0011F8  B0D8               	btfsc	status,0,c
  2779                           
  2780                           ; BSR set to: 0
  2781                           ;usb_device.c: 778: }
  2782                           ;usb_device.c: 783: if(UIEbits.TRNIE)
  2783                           
  2784                           ;usb_device.c: 777: return;
  2785                           
  2786                           ; BSR set to: 0
  2787                           ;usb_device.c: 775: {
  2788                           ;usb_device.c: 776: {PIR2bits.USBIF = 0;};
  2789  0011FA  A669               	btfss	3945,3,c	;volatile
  2790  0011FC  D03E               	goto	i2l365
  2791                           
  2792                           ; BSR set to: 0
  2793                           ;usb_device.c: 784: {
  2794                           ;usb_device.c: 785: for(i = 0; i < 4u; i++)
  2795  0011FE  0E00               	movlw	0
  2796  001200  0100               	movlb	0	; () banked
  2797  001202  6F81               	movwf	USBDeviceTasks@i& (0+255),b
  2798  001204  D036               	goto	L7
  2799  001206                     i2l366:
  2800                           
  2801                           ; BSR set to: 0
  2802                           ;usb_device.c: 786: {
  2803                           ;usb_device.c: 787: if(UIRbits.TRNIF)
  2804  001206  A668               	btfss	3944,3,c	;volatile
  2805  001208  D038               	goto	i2l365
  2806                           
  2807                           ; BSR set to: 0
  2808                           ;usb_device.c: 788: {
  2809                           ;usb_device.c: 790: USTATcopy.Val = USTAT;
  2810  00120A  CF6C F04C          	movff	3948,_USTATcopy	;volatile
  2811                           
  2812                           ; BSR set to: 0
  2813                           ;usb_device.c: 791: endpoint_number = USTATcopy.endpoint_number;
  2814  00120E  304C               	rrcf	_USTATcopy,w,c	;volatile
  2815  001210  32E8               	rrcf	wreg,f,c
  2816  001212  32E8               	rrcf	wreg,f,c
  2817  001214  0B0F               	andlw	15
  2818  001216  6E48               	movwf	_endpoint_number,c	;volatile
  2819                           
  2820                           ; BSR set to: 0
  2821                           ;usb_device.c: 793: (UIR &= 0xF7);
  2822  001218  9668               	bcf	3944,3,c	;volatile
  2823                           
  2824                           ; BSR set to: 0
  2825                           ;usb_device.c: 798: if(USTATcopy.direction == 0)
  2826  00121A  B44C               	btfsc	_USTATcopy,2,c	;volatile
  2827  00121C  D009               	goto	i2l4638
  2828                           
  2829                           ; BSR set to: 0
  2830                           ;usb_device.c: 799: {
  2831                           ;usb_device.c: 800: ep_data_out[endpoint_number].bits.ping_pong_state ^= 1;
  2832  00121E  5048               	movf	_endpoint_number,w,c	;volatile
  2833  001220  0D01               	mullw	1
  2834  001222  0100               	movlb	0	; () banked
  2835  001224  0E76               	movlw	low _ep_data_out	;volatile
  2836  001226  24F3               	addwf	prodl,w,c
  2837  001228  6ED9               	movwf	fsr2l,c
  2838  00122A  0100               	movlb	0	; () banked
  2839  00122C  0E00               	movlw	high _ep_data_out	;volatile
  2840  00122E  D008               	goto	L6
  2841  001230                     i2l4638:
  2842                           
  2843                           ; BSR set to: 0
  2844                           ;usb_device.c: 802: else
  2845                           ;usb_device.c: 803: {
  2846                           ;usb_device.c: 804: ep_data_in[endpoint_number].bits.ping_pong_state ^= 1;
  2847  001230  5048               	movf	_endpoint_number,w,c	;volatile
  2848  001232  0D01               	mullw	1
  2849  001234  0100               	movlb	0	; () banked
  2850  001236  0E74               	movlw	low _ep_data_in	;volatile
  2851  001238  24F3               	addwf	prodl,w,c
  2852  00123A  6ED9               	movwf	fsr2l,c
  2853  00123C  0100               	movlb	0	; () banked
  2854  00123E  0E00               	movlw	high _ep_data_in	;volatile
  2855  001240                     L6:
  2856  001240  20F4               	addwfc	prodh,w,c
  2857  001242  6EDA               	movwf	fsr2h,c
  2858  001244  0100               	movlb	0	; () banked
  2859  001246  70DF               	btg	indf2,0,c
  2860                           
  2861                           ; BSR set to: 0
  2862                           ;usb_device.c: 805: }
  2863                           ;usb_device.c: 810: if(endpoint_number == 0)
  2864                           
  2865                           ; BSR set to: 0
  2866  001248  6648               	tstfsz	_endpoint_number,c	;volatile
  2867  00124A  D003               	goto	i2l4644
  2868                           
  2869                           ; BSR set to: 0
  2870                           ;usb_device.c: 811: {
  2871                           ;usb_device.c: 812: USBCtrlEPService();
  2872  00124C  EC2B  F00C         	call	_USBCtrlEPService	;wreg free
  2873                           
  2874                           ;usb_device.c: 813: }
  2875  001250  D00E               	goto	i2l4646
  2876  001252                     i2l4644:
  2877                           
  2878                           ;usb_device.c: 814: else
  2879                           ;usb_device.c: 815: {
  2880                           ;usb_device.c: 816: USER_USB_CALLBACK_EVENT_HANDLER(EVENT_TRANSFER,(uint8_t*)&USTATcopy.
      +                          Val,0);
  2881  001252  0E00               	movlw	0
  2882  001254  6E21               	movwf	USER_USB_CALLBACK_EVENT_HANDLER@event+1,c
  2883  001256  0E72               	movlw	114
  2884  001258  6E20               	movwf	USER_USB_CALLBACK_EVENT_HANDLER@event,c
  2885  00125A  0E00               	movlw	high _USTATcopy	;volatile
  2886  00125C  6E23               	movwf	USER_USB_CALLBACK_EVENT_HANDLER@pdata+1,c
  2887  00125E  0E4C               	movlw	low _USTATcopy	;volatile
  2888  001260  6E22               	movwf	USER_USB_CALLBACK_EVENT_HANDLER@pdata,c
  2889  001262  0E00               	movlw	0
  2890  001264  6E25               	movwf	USER_USB_CALLBACK_EVENT_HANDLER@size+1,c
  2891  001266  0E00               	movlw	0
  2892  001268  6E24               	movwf	USER_USB_CALLBACK_EVENT_HANDLER@size,c
  2893  00126A  ECAF  F00F         	call	_USER_USB_CALLBACK_EVENT_HANDLER	;wreg free
  2894  00126E                     i2l4646:
  2895  00126E  0100               	movlb	0	; () banked
  2896  001270  2B81               	incf	USBDeviceTasks@i& (0+255),f,b
  2897  001272                     L7:
  2898                           
  2899                           ; BSR set to: 0
  2900  001272  0E03               	movlw	3
  2901  001274  0100               	movlb	0	; () banked
  2902  001276  6581               	cpfsgt	USBDeviceTasks@i& (0+255),b
  2903  001278  D7C6               	goto	i2l366
  2904  00127A                     i2l365:
  2905                           
  2906                           ;usb_device.c: 822: }
  2907                           ;usb_device.c: 823: }
  2908                           ;usb_device.c: 824: }
  2909                           ;usb_device.c: 826: {PIR2bits.USBIF = 0;};
  2910  00127A  9AA1               	bcf	4001,5,c	;volatile
  2911  00127C  0012               	return	
  2912  00127E                     __end_of_USBDeviceTasks:
  2913                           	opt stack 0
  2914                           pclatu	equ	0xFFB
  2915                           pclath	equ	0xFFA
  2916                           tblptru	equ	0xFF8
  2917                           tblptrh	equ	0xFF7
  2918                           tblptrl	equ	0xFF6
  2919                           tablat	equ	0xFF5
  2920                           prodh	equ	0xFF4
  2921                           prodl	equ	0xFF3
  2922                           intcon	equ	0xFF2
  2923                           postinc0	equ	0xFEE
  2924                           fsr0h	equ	0xFEA
  2925                           fsr0l	equ	0xFE9
  2926                           wreg	equ	0xFE8
  2927                           fsr1h	equ	0xFE2
  2928                           fsr1l	equ	0xFE1
  2929                           bsr	equ	0xFE0
  2930                           indf2	equ	0xFDF
  2931                           postinc2	equ	0xFDE
  2932                           postdec2	equ	0xFDD
  2933                           plusw2	equ	0xFDB
  2934                           fsr2h	equ	0xFDA
  2935                           fsr2l	equ	0xFD9
  2936                           status	equ	0xFD8
  2937                           
  2938 ;; *************** function i2_USBDeviceInit *****************
  2939 ;; Defined at:
  2940 ;;		line 298 in file "../src/usb/src/usb_device.c"
  2941 ;; Parameters:    Size  Location     Type
  2942 ;;		None
  2943 ;; Auto vars:     Size  Location     Type
  2944 ;;  USBDeviceIni    1   25[COMRAM] unsigned char 
  2945 ;; Return value:  Size  Location     Type
  2946 ;;		None               void
  2947 ;; Registers used:
  2948 ;;		wreg, fsr2l, fsr2h, status,2, status,0, prodl, prodh, cstack
  2949 ;; Tracked objects:
  2950 ;;		On entry : 0/0
  2951 ;;		On exit  : 0/0
  2952 ;;		Unchanged: 0/0
  2953 ;; Data sizes:     COMRAM   BANK0   BANK1   BANK2   BANK3   BANK4   BANK5   BANK6   BANK7
  2954 ;;      Params:         0       0       0       0       0       0       0       0       0
  2955 ;;      Locals:         1       0       0       0       0       0       0       0       0
  2956 ;;      Temps:          0       0       0       0       0       0       0       0       0
  2957 ;;      Totals:         1       0       0       0       0       0       0       0       0
  2958 ;;Total ram usage:        1 bytes
  2959 ;; Hardware stack levels used:    1
  2960 ;; Hardware stack levels required when called:    1
  2961 ;; This function calls:
  2962 ;;		i2_memset
  2963 ;; This function is called by:
  2964 ;;		_USBDeviceTasks
  2965 ;; This function uses a non-reentrant model
  2966 ;;
  2967                           
  2968                           	psect	text14
  2969  000EBA                     __ptext14:
  2970                           	opt stack 0
  2971  000EBA                     i2_USBDeviceInit:
  2972                           	opt stack 23
  2973                           
  2974                           ;usb_device.c: 300: uint8_t i;
  2975                           ;usb_device.c: 302: {PIE2bits.USBIE = 0;};
  2976                           
  2977                           ;incstack = 0
  2978  000EBA  9AA0               	bcf	4000,5,c	;volatile
  2979                           
  2980                           ;usb_device.c: 305: {UEIR = 0;};
  2981  000EBC  0E00               	movlw	0
  2982  000EBE  6E6A               	movwf	3946,c	;volatile
  2983                           
  2984                           ;usb_device.c: 308: {UIR = 0;};
  2985  000EC0  0E00               	movlw	0
  2986  000EC2  6E68               	movwf	3944,c	;volatile
  2987                           
  2988                           ;usb_device.c: 311: UEP0 = 0;
  2989  000EC4  0E00               	movlw	0
  2990  000EC6  6E70               	movwf	3952,c	;volatile
  2991                           
  2992                           ;usb_device.c: 313: memset((void*)&UEP1,0x00,(1));;
  2993  000EC8  0E0F               	movlw	15	;volatile
  2994  000ECA  6E13               	movwf	i2memset@p1+1,c
  2995  000ECC  0E71               	movlw	113	;volatile
  2996  000ECE  6E12               	movwf	i2memset@p1,c
  2997  000ED0  0E00               	movlw	0
  2998  000ED2  6E15               	movwf	i2memset@c+1,c
  2999  000ED4  0E00               	movlw	0
  3000  000ED6  6E14               	movwf	i2memset@c,c
  3001  000ED8  0E00               	movlw	0
  3002  000EDA  6E17               	movwf	i2memset@n+1,c
  3003  000EDC  0E01               	movlw	1
  3004  000EDE  6E16               	movwf	i2memset@n,c
  3005  000EE0  EC14  F011         	call	i2_memset	;wreg free
  3006                           
  3007                           ;usb_device.c: 315: { UCFG = 0x10 | 0x00 | 0x04 | 0x02; UEIE = 0x9F; UIE = 0x39 | 0x40 |
      +                           0x02; };
  3008  000EE4  0E16               	movlw	22
  3009  000EE6  6E6F               	movwf	3951,c	;volatile
  3010  000EE8  0E9F               	movlw	159
  3011  000EEA  6E6B               	movwf	3947,c	;volatile
  3012  000EEC  0E7B               	movlw	123
  3013  000EEE  6E69               	movwf	3945,c	;volatile
  3014                           
  3015                           ;usb_device.c: 318: ;
  3016                           ;usb_device.c: 321: ;
  3017                           ;usb_device.c: 324: for(i=0;i<(sizeof(BDT)/sizeof(BDT_ENTRY));i++)
  3018  000EF0  0E00               	movlw	0
  3019  000EF2  6E1A               	movwf	i2USBDeviceInit@i,c
  3020  000EF4  D00F               	goto	L8
  3021  000EF6                     i2l4498:
  3022                           
  3023                           ;usb_device.c: 325: {
  3024                           ;usb_device.c: 326: BDT[i].Val = 0x00;
  3025  000EF6  501A               	movf	i2USBDeviceInit@i,w,c
  3026  000EF8  0D04               	mullw	4
  3027  000EFA  0104               	movlb	4	; () banked
  3028  000EFC  0E00               	movlw	0	;volatile
  3029  000EFE  24F3               	addwf	prodl,w,c
  3030  000F00  6ED9               	movwf	fsr2l,c
  3031  000F02  0104               	movlb	4	; () banked
  3032  000F04  0E04               	movlw	4	;volatile
  3033  000F06  20F4               	addwfc	prodh,w,c
  3034  000F08  6EDA               	movwf	fsr2h,c
  3035  000F0A  6ADE               	clrf	postinc2,c
  3036  000F0C  6ADE               	clrf	postinc2,c
  3037  000F0E  6ADE               	clrf	postinc2,c
  3038  000F10  6ADD               	clrf	postdec2,c
  3039                           
  3040                           ; BSR set to: 4
  3041  000F12  2A1A               	incf	i2USBDeviceInit@i,f,c
  3042  000F14                     L8:
  3043                           
  3044                           ; BSR set to: 4
  3045  000F14  0E07               	movlw	7
  3046  000F16  641A               	cpfsgt	i2USBDeviceInit@i,c
  3047  000F18  D7EE               	goto	i2l4498
  3048                           
  3049                           ;usb_device.c: 327: }
  3050                           ;usb_device.c: 330: UCONbits.PPBRST = 1;
  3051  000F1A  8C6D               	bsf	3949,6,c	;volatile
  3052                           
  3053                           ;usb_device.c: 333: UADDR = 0x00;
  3054  000F1C  0E00               	movlw	0
  3055  000F1E  6E6E               	movwf	3950,c	;volatile
  3056                           
  3057                           ;usb_device.c: 336: UCONbits.PKTDIS = 0;
  3058  000F20  986D               	bcf	3949,4,c	;volatile
  3059                           
  3060                           ;usb_device.c: 339: UCONbits.PPBRST = 0;
  3061  000F22  9C6D               	bcf	3949,6,c	;volatile
  3062                           
  3063                           ;usb_device.c: 342: while(UIRbits.TRNIF == 1)
  3064  000F24  D00D               	goto	i2l4518
  3065  000F26                     i2l4510:
  3066                           
  3067                           ;usb_device.c: 343: {
  3068                           ;usb_device.c: 344: (UIR &= 0xF7);
  3069  000F26  9668               	bcf	3944,3,c	;volatile
  3070                           
  3071                           ;usb_device.c: 346: inPipes[0].info.Val = 0;
  3072  000F28  0E00               	movlw	0
  3073  000F2A  0100               	movlb	0	; () banked
  3074  000F2C  6F7D               	movwf	(_inPipes+3)& (0+255),b	;volatile
  3075                           
  3076                           ; BSR set to: 0
  3077                           ;usb_device.c: 347: outPipes[0].info.Val = 0;
  3078  000F2E  0E00               	movlw	0
  3079  000F30  0100               	movlb	0	; () banked
  3080  000F32  6F63               	movwf	(_outPipes+3)& (0+255),b	;volatile
  3081                           
  3082                           ; BSR set to: 0
  3083                           ;usb_device.c: 348: outPipes[0].wCount.Val = 0;
  3084  000F34  0E00               	movlw	0
  3085  000F36  0100               	movlb	0	; () banked
  3086  000F38  6F65               	movwf	(_outPipes+5)& (0+255),b	;volatile
  3087  000F3A  0E00               	movlw	0
  3088  000F3C  0100               	movlb	0	; () banked
  3089  000F3E  6F64               	movwf	(_outPipes+4)& (0+255),b	;volatile
  3090  000F40                     i2l4518:
  3091  000F40  B668               	btfsc	3944,3,c	;volatile
  3092  000F42  D7F1               	goto	i2l4510
  3093                           
  3094                           ;usb_device.c: 349: }
  3095                           ;usb_device.c: 353: USBStatusStageEnabledFlag1 = 1;
  3096  000F44  0E01               	movlw	1
  3097  000F46  6E44               	movwf	_USBStatusStageEnabledFlag1,c	;volatile
  3098                           
  3099                           ;usb_device.c: 354: USBStatusStageEnabledFlag2 = 1;
  3100  000F48  0E01               	movlw	1
  3101  000F4A  6E45               	movwf	_USBStatusStageEnabledFlag2,c	;volatile
  3102                           
  3103                           ;usb_device.c: 356: USBDeferINDataStagePackets = 0;
  3104  000F4C  0E00               	movlw	0
  3105  000F4E  6E41               	movwf	_USBDeferINDataStagePackets,c	;volatile
  3106                           
  3107                           ;usb_device.c: 357: USBDeferOUTDataStagePackets = 0;
  3108  000F50  0E00               	movlw	0
  3109  000F52  6E42               	movwf	_USBDeferOUTDataStagePackets,c	;volatile
  3110                           
  3111                           ;usb_device.c: 358: USBBusIsSuspended = 0;
  3112  000F54  0E00               	movlw	0
  3113  000F56  6E40               	movwf	_USBBusIsSuspended,c	;volatile
  3114                           
  3115                           ;usb_device.c: 362: for(i = 0; i < (uint8_t)(1+1u); i++)
  3116  000F58  0E00               	movlw	0
  3117  000F5A  6E1A               	movwf	i2USBDeviceInit@i,c
  3118  000F5C  D035               	goto	L9
  3119  000F5E                     i2l4526:
  3120                           
  3121                           ;usb_device.c: 363: {
  3122                           ;usb_device.c: 364: pBDTEntryIn[i] = 0u;
  3123  000F5E  501A               	movf	i2USBDeviceInit@i,w,c
  3124  000F60  0D02               	mullw	2
  3125  000F62  0100               	movlb	0	; () banked
  3126  000F64  0E68               	movlw	low _pBDTEntryIn
  3127  000F66  24F3               	addwf	prodl,w,c
  3128  000F68  6ED9               	movwf	fsr2l,c
  3129  000F6A  0100               	movlb	0	; () banked
  3130  000F6C  0E00               	movlw	high _pBDTEntryIn
  3131  000F6E  20F4               	addwfc	prodh,w,c
  3132  000F70  6EDA               	movwf	fsr2h,c
  3133  000F72  0E00               	movlw	0
  3134  000F74  6EDE               	movwf	postinc2,c
  3135  000F76  0E00               	movlw	0
  3136  000F78  6EDD               	movwf	postdec2,c
  3137                           
  3138                           ;usb_device.c: 365: pBDTEntryOut[i] = 0u;
  3139  000F7A  501A               	movf	i2USBDeviceInit@i,w,c
  3140  000F7C  0D02               	mullw	2
  3141  000F7E  0100               	movlb	0	; () banked
  3142  000F80  0E6C               	movlw	low _pBDTEntryOut
  3143  000F82  24F3               	addwf	prodl,w,c
  3144  000F84  6ED9               	movwf	fsr2l,c
  3145  000F86  0100               	movlb	0	; () banked
  3146  000F88  0E00               	movlw	high _pBDTEntryOut
  3147  000F8A  20F4               	addwfc	prodh,w,c
  3148  000F8C  6EDA               	movwf	fsr2h,c
  3149  000F8E  0E00               	movlw	0
  3150  000F90  6EDE               	movwf	postinc2,c
  3151  000F92  0E00               	movlw	0
  3152  000F94  6EDD               	movwf	postdec2,c
  3153                           
  3154                           ;usb_device.c: 366: ep_data_in[i].Val = 0u;
  3155  000F96  501A               	movf	i2USBDeviceInit@i,w,c
  3156  000F98  0D01               	mullw	1
  3157  000F9A  0100               	movlb	0	; () banked
  3158  000F9C  0E74               	movlw	low _ep_data_in	;volatile
  3159  000F9E  24F3               	addwf	prodl,w,c
  3160  000FA0  6ED9               	movwf	fsr2l,c
  3161  000FA2  0100               	movlb	0	; () banked
  3162  000FA4  0E00               	movlw	high _ep_data_in	;volatile
  3163  000FA6  20F4               	addwfc	prodh,w,c
  3164  000FA8  6EDA               	movwf	fsr2h,c
  3165  000FAA  0E00               	movlw	0
  3166  000FAC  6EDF               	movwf	indf2,c
  3167                           
  3168                           ;usb_device.c: 367: ep_data_out[i].Val = 0u;
  3169  000FAE  501A               	movf	i2USBDeviceInit@i,w,c
  3170  000FB0  0D01               	mullw	1
  3171  000FB2  0100               	movlb	0	; () banked
  3172  000FB4  0E76               	movlw	low _ep_data_out	;volatile
  3173  000FB6  24F3               	addwf	prodl,w,c
  3174  000FB8  6ED9               	movwf	fsr2l,c
  3175  000FBA  0100               	movlb	0	; () banked
  3176  000FBC  0E00               	movlw	high _ep_data_out	;volatile
  3177  000FBE  20F4               	addwfc	prodh,w,c
  3178  000FC0  6EDA               	movwf	fsr2h,c
  3179  000FC2  0E00               	movlw	0
  3180  000FC4  6EDF               	movwf	indf2,c
  3181                           
  3182                           ; BSR set to: 0
  3183  000FC6  2A1A               	incf	i2USBDeviceInit@i,f,c
  3184  000FC8                     L9:
  3185                           
  3186                           ; BSR set to: 0
  3187  000FC8  0E01               	movlw	1
  3188  000FCA  641A               	cpfsgt	i2USBDeviceInit@i,c
  3189  000FCC  D7C8               	goto	i2l4526
  3190                           
  3191                           ;usb_device.c: 368: }
  3192                           ;usb_device.c: 371: pBDTEntryIn[0] = (volatile BDT_ENTRY*)&BDT[2];
  3193                           
  3194                           ; BSR set to: 0
  3195  000FCE  0104               	movlb	4	; () banked
  3196  000FD0  0E04               	movlw	4	;volatile
  3197  000FD2  0100               	movlb	0	; () banked
  3198  000FD4  6F69               	movwf	(_pBDTEntryIn+1)& (0+255),b
  3199  000FD6  0104               	movlb	4	; () banked
  3200  000FD8  0E08               	movlw	8	;volatile
  3201  000FDA  0100               	movlb	0	; () banked
  3202  000FDC  6F68               	movwf	_pBDTEntryIn& (0+255),b
  3203                           
  3204                           ; BSR set to: 0
  3205                           ;usb_device.c: 373: UEP0 = 0x06|0x10;
  3206  000FDE  0E16               	movlw	22
  3207  000FE0  6E70               	movwf	3952,c	;volatile
  3208                           
  3209                           ; BSR set to: 0
  3210                           ;usb_device.c: 375: BDT[0].ADR = ((uint16_t)(&SetupPkt));
  3211  000FE2  0E04               	movlw	4
  3212  000FE4  0104               	movlb	4	; () banked
  3213  000FE6  6F03               	movwf	3,b	;volatile
  3214  000FE8  0E20               	movlw	32
  3215  000FEA  0104               	movlb	4	; () banked
  3216  000FEC  6F02               	movwf	2,b	;volatile
  3217                           
  3218                           ; BSR set to: 4
  3219                           ;usb_device.c: 376: BDT[0].CNT = 8;
  3220  000FEE  0E08               	movlw	8
  3221  000FF0  0104               	movlb	4	; () banked
  3222  000FF2  6F01               	movwf	1,b	;volatile
  3223                           
  3224                           ; BSR set to: 4
  3225                           ;usb_device.c: 377: BDT[0].STAT.Val = 0x00|0x04;
  3226  000FF4  0E04               	movlw	4
  3227  000FF6  0104               	movlb	4	; () banked
  3228  000FF8  6F00               	movwf	0,b	;volatile
  3229                           
  3230                           ; BSR set to: 4
  3231                           ;usb_device.c: 378: BDT[0].STAT.Val |= 0x80;
  3232  000FFA  0104               	movlb	4	; () banked
  3233  000FFC  8F00               	bsf	0,7,b	;volatile
  3234                           
  3235                           ; BSR set to: 4
  3236                           ;usb_device.c: 381: USBActiveConfiguration = 0;
  3237  000FFE  0E00               	movlw	0
  3238  001000  6E4A               	movwf	_USBActiveConfiguration,c	;volatile
  3239                           
  3240                           ; BSR set to: 4
  3241                           ;usb_device.c: 384: USBDeviceState = DETACHED_STATE;
  3242  001002  0E00               	movlw	0
  3243  001004  0100               	movlb	0	; () banked
  3244  001006  6F78               	movwf	_USBDeviceState& (0+255),b	;volatile
  3245                           
  3246                           ; BSR set to: 0
  3247  001008  0012               	return	
  3248  00100A                     __end_ofi2_USBDeviceInit:
  3249                           	opt stack 0
  3250                           pclatu	equ	0xFFB
  3251                           pclath	equ	0xFFA
  3252                           tblptru	equ	0xFF8
  3253                           tblptrh	equ	0xFF7
  3254                           tblptrl	equ	0xFF6
  3255                           tablat	equ	0xFF5
  3256                           prodh	equ	0xFF4
  3257                           prodl	equ	0xFF3
  3258                           intcon	equ	0xFF2
  3259                           postinc0	equ	0xFEE
  3260                           fsr0h	equ	0xFEA
  3261                           fsr0l	equ	0xFE9
  3262                           wreg	equ	0xFE8
  3263                           fsr1h	equ	0xFE2
  3264                           fsr1l	equ	0xFE1
  3265                           bsr	equ	0xFE0
  3266                           indf2	equ	0xFDF
  3267                           postinc2	equ	0xFDE
  3268                           postdec2	equ	0xFDD
  3269                           plusw2	equ	0xFDB
  3270                           fsr2h	equ	0xFDA
  3271                           fsr2l	equ	0xFD9
  3272                           status	equ	0xFD8
  3273                           
  3274 ;; *************** function _USBWakeFromSuspend *****************
  3275 ;; Defined at:
  3276 ;;		line 2302 in file "../src/usb/src/usb_device.c"
  3277 ;; Parameters:    Size  Location     Type
  3278 ;;		None
  3279 ;; Auto vars:     Size  Location     Type
  3280 ;;		None
  3281 ;; Return value:  Size  Location     Type
  3282 ;;		None               void
  3283 ;; Registers used:
  3284 ;;		wreg, fsr2l, fsr2h, status,2, status,0, prodl, prodh, cstack
  3285 ;; Tracked objects:
  3286 ;;		On entry : 0/0
  3287 ;;		On exit  : 0/0
  3288 ;;		Unchanged: 0/0
  3289 ;; Data sizes:     COMRAM   BANK0   BANK1   BANK2   BANK3   BANK4   BANK5   BANK6   BANK7
  3290 ;;      Params:         0       0       0       0       0       0       0       0       0
  3291 ;;      Locals:         0       0       0       0       0       0       0       0       0
  3292 ;;      Temps:          0       0       0       0       0       0       0       0       0
  3293 ;;      Totals:         0       0       0       0       0       0       0       0       0
  3294 ;;Total ram usage:        0 bytes
  3295 ;; Hardware stack levels used:    1
  3296 ;; Hardware stack levels required when called:    4
  3297 ;; This function calls:
  3298 ;;		_USER_USB_CALLBACK_EVENT_HANDLER
  3299 ;; This function is called by:
  3300 ;;		_USBDeviceTasks
  3301 ;; This function uses a non-reentrant model
  3302 ;;
  3303                           
  3304                           	psect	text15
  3305  0021FA                     __ptext15:
  3306                           	opt stack 0
  3307  0021FA                     _USBWakeFromSuspend:
  3308                           	opt stack 20
  3309                           
  3310                           ;usb_device.c: 2304: USBBusIsSuspended = 0;
  3311                           
  3312                           ; BSR set to: 0
  3313                           ;incstack = 0
  3314  0021FA  0E00               	movlw	0
  3315  0021FC  6E40               	movwf	_USBBusIsSuspended,c	;volatile
  3316                           
  3317                           ;usb_device.c: 2310: USER_USB_CALLBACK_EVENT_HANDLER(EVENT_RESUME,0,0);
  3318  0021FE  0E00               	movlw	0
  3319  002200  6E21               	movwf	USER_USB_CALLBACK_EVENT_HANDLER@event+1,c
  3320  002202  0E74               	movlw	116
  3321  002204  6E20               	movwf	USER_USB_CALLBACK_EVENT_HANDLER@event,c
  3322  002206  0E00               	movlw	0
  3323  002208  6E23               	movwf	USER_USB_CALLBACK_EVENT_HANDLER@pdata+1,c
  3324  00220A  0E00               	movlw	0
  3325  00220C  6E22               	movwf	USER_USB_CALLBACK_EVENT_HANDLER@pdata,c
  3326  00220E  0E00               	movlw	0
  3327  002210  6E25               	movwf	USER_USB_CALLBACK_EVENT_HANDLER@size+1,c
  3328  002212  0E00               	movlw	0
  3329  002214  6E24               	movwf	USER_USB_CALLBACK_EVENT_HANDLER@size,c
  3330  002216  ECAF  F00F         	call	_USER_USB_CALLBACK_EVENT_HANDLER	;wreg free
  3331                           
  3332                           ;usb_device.c: 2317: UCONbits.SUSPND = 0;
  3333  00221A  926D               	bcf	3949,1,c	;volatile
  3334                           
  3335                           ;usb_device.c: 2322: UIEbits.ACTVIE = 0;
  3336  00221C  9469               	bcf	3945,2,c	;volatile
  3337                           
  3338                           ;usb_device.c: 2340: while(UIRbits.ACTVIF)
  3339  00221E  D001               	goto	i2l4420
  3340  002220                     i2l4418:
  3341                           
  3342                           ;usb_device.c: 2342: {
  3343                           ;usb_device.c: 2343: (UIR &= 0xFB);
  3344  002220  9468               	bcf	3944,2,c	;volatile
  3345  002222                     i2l4420:
  3346  002222  A468               	btfss	3944,2,c	;volatile
  3347  002224  0012               	return	
  3348  002226  D7FC               	goto	i2l4418
  3349  002228                     __end_of_USBWakeFromSuspend:
  3350                           	opt stack 0
  3351                           pclatu	equ	0xFFB
  3352                           pclath	equ	0xFFA
  3353                           tblptru	equ	0xFF8
  3354                           tblptrh	equ	0xFF7
  3355                           tblptrl	equ	0xFF6
  3356                           tablat	equ	0xFF5
  3357                           prodh	equ	0xFF4
  3358                           prodl	equ	0xFF3
  3359                           intcon	equ	0xFF2
  3360                           postinc0	equ	0xFEE
  3361                           fsr0h	equ	0xFEA
  3362                           fsr0l	equ	0xFE9
  3363                           wreg	equ	0xFE8
  3364                           fsr1h	equ	0xFE2
  3365                           fsr1l	equ	0xFE1
  3366                           bsr	equ	0xFE0
  3367                           indf2	equ	0xFDF
  3368                           postinc2	equ	0xFDE
  3369                           postdec2	equ	0xFDD
  3370                           plusw2	equ	0xFDB
  3371                           fsr2h	equ	0xFDA
  3372                           fsr2l	equ	0xFD9
  3373                           status	equ	0xFD8
  3374                           
  3375 ;; *************** function _USBSuspend *****************
  3376 ;; Defined at:
  3377 ;;		line 2245 in file "../src/usb/src/usb_device.c"
  3378 ;; Parameters:    Size  Location     Type
  3379 ;;		None
  3380 ;; Auto vars:     Size  Location     Type
  3381 ;;		None
  3382 ;; Return value:  Size  Location     Type
  3383 ;;		None               void
  3384 ;; Registers used:
  3385 ;;		wreg, fsr2l, fsr2h, status,2, status,0, prodl, prodh, cstack
  3386 ;; Tracked objects:
  3387 ;;		On entry : 0/0
  3388 ;;		On exit  : 0/0
  3389 ;;		Unchanged: 0/0
  3390 ;; Data sizes:     COMRAM   BANK0   BANK1   BANK2   BANK3   BANK4   BANK5   BANK6   BANK7
  3391 ;;      Params:         0       0       0       0       0       0       0       0       0
  3392 ;;      Locals:         0       0       0       0       0       0       0       0       0
  3393 ;;      Temps:          0       0       0       0       0       0       0       0       0
  3394 ;;      Totals:         0       0       0       0       0       0       0       0       0
  3395 ;;Total ram usage:        0 bytes
  3396 ;; Hardware stack levels used:    1
  3397 ;; Hardware stack levels required when called:    4
  3398 ;; This function calls:
  3399 ;;		_USER_USB_CALLBACK_EVENT_HANDLER
  3400 ;; This function is called by:
  3401 ;;		_USBDeviceTasks
  3402 ;; This function uses a non-reentrant model
  3403 ;;
  3404                           
  3405                           	psect	text16
  3406  002254                     __ptext16:
  3407                           	opt stack 0
  3408  002254                     _USBSuspend:
  3409                           	opt stack 20
  3410                           
  3411                           ;usb_device.c: 2270: UIEbits.ACTVIE = 1;
  3412                           
  3413                           ;incstack = 0
  3414  002254  8469               	bsf	3945,2,c	;volatile
  3415                           
  3416                           ;usb_device.c: 2271: (UIR &= 0xEF);
  3417  002256  9868               	bcf	3944,4,c	;volatile
  3418                           
  3419                           ;usb_device.c: 2274: UCONbits.SUSPND = 1;
  3420  002258  826D               	bsf	3949,1,c	;volatile
  3421                           
  3422                           ;usb_device.c: 2277: USBBusIsSuspended = 1;
  3423  00225A  0E01               	movlw	1
  3424  00225C  6E40               	movwf	_USBBusIsSuspended,c	;volatile
  3425                           
  3426                           ;usb_device.c: 2284: USER_USB_CALLBACK_EVENT_HANDLER(EVENT_SUSPEND,0,0);
  3427  00225E  0E00               	movlw	0
  3428  002260  6E21               	movwf	USER_USB_CALLBACK_EVENT_HANDLER@event+1,c
  3429  002262  0E75               	movlw	117
  3430  002264  6E20               	movwf	USER_USB_CALLBACK_EVENT_HANDLER@event,c
  3431  002266  0E00               	movlw	0
  3432  002268  6E23               	movwf	USER_USB_CALLBACK_EVENT_HANDLER@pdata+1,c
  3433  00226A  0E00               	movlw	0
  3434  00226C  6E22               	movwf	USER_USB_CALLBACK_EVENT_HANDLER@pdata,c
  3435  00226E  0E00               	movlw	0
  3436  002270  6E25               	movwf	USER_USB_CALLBACK_EVENT_HANDLER@size+1,c
  3437  002272  0E00               	movlw	0
  3438  002274  6E24               	movwf	USER_USB_CALLBACK_EVENT_HANDLER@size,c
  3439  002276  ECAF  F00F         	call	_USER_USB_CALLBACK_EVENT_HANDLER	;wreg free
  3440  00227A  0012               	return	
  3441  00227C                     __end_of_USBSuspend:
  3442                           	opt stack 0
  3443                           pclatu	equ	0xFFB
  3444                           pclath	equ	0xFFA
  3445                           tblptru	equ	0xFF8
  3446                           tblptrh	equ	0xFF7
  3447                           tblptrl	equ	0xFF6
  3448                           tablat	equ	0xFF5
  3449                           prodh	equ	0xFF4
  3450                           prodl	equ	0xFF3
  3451                           intcon	equ	0xFF2
  3452                           postinc0	equ	0xFEE
  3453                           fsr0h	equ	0xFEA
  3454                           fsr0l	equ	0xFE9
  3455                           wreg	equ	0xFE8
  3456                           fsr1h	equ	0xFE2
  3457                           fsr1l	equ	0xFE1
  3458                           bsr	equ	0xFE0
  3459                           indf2	equ	0xFDF
  3460                           postinc2	equ	0xFDE
  3461                           postdec2	equ	0xFDD
  3462                           plusw2	equ	0xFDB
  3463                           fsr2h	equ	0xFDA
  3464                           fsr2l	equ	0xFD9
  3465                           status	equ	0xFD8
  3466                           
  3467 ;; *************** function _USBStallHandler *****************
  3468 ;; Defined at:
  3469 ;;		line 2202 in file "../src/usb/src/usb_device.c"
  3470 ;; Parameters:    Size  Location     Type
  3471 ;;		None
  3472 ;; Auto vars:     Size  Location     Type
  3473 ;;		None
  3474 ;; Return value:  Size  Location     Type
  3475 ;;		None               void
  3476 ;; Registers used:
  3477 ;;		wreg, fsr2l, fsr2h, status,2, status,0
  3478 ;; Tracked objects:
  3479 ;;		On entry : 0/0
  3480 ;;		On exit  : 0/0
  3481 ;;		Unchanged: 0/0
  3482 ;; Data sizes:     COMRAM   BANK0   BANK1   BANK2   BANK3   BANK4   BANK5   BANK6   BANK7
  3483 ;;      Params:         0       0       0       0       0       0       0       0       0
  3484 ;;      Locals:         0       0       0       0       0       0       0       0       0
  3485 ;;      Temps:          0       0       0       0       0       0       0       0       0
  3486 ;;      Totals:         0       0       0       0       0       0       0       0       0
  3487 ;;Total ram usage:        0 bytes
  3488 ;; Hardware stack levels used:    1
  3489 ;; This function calls:
  3490 ;;		Nothing
  3491 ;; This function is called by:
  3492 ;;		_USBDeviceTasks
  3493 ;; This function uses a non-reentrant model
  3494 ;;
  3495                           
  3496                           	psect	text17
  3497  0020E8                     __ptext17:
  3498                           	opt stack 0
  3499  0020E8                     _USBStallHandler:
  3500                           	opt stack 24
  3501                           
  3502                           ;usb_device.c: 2214: if(UEP0bits.EPSTALL == 1)
  3503                           
  3504                           ;incstack = 0
  3505  0020E8  A070               	btfss	3952,0,c	;volatile
  3506  0020EA  D01B               	goto	i2l504
  3507                           
  3508                           ;usb_device.c: 2215: {
  3509                           ;usb_device.c: 2217: if((pBDTEntryEP0OutCurrent->STAT.Val == 0x80) && (pBDTEntryIn[0]->S
      +                          TAT.Val == (0x80|0x04)))
  3510  0020EC  0E80               	movlw	128
  3511  0020EE  C038  FFD9         	movff	_pBDTEntryEP0OutCurrent,fsr2l
  3512  0020F2  C039  FFDA         	movff	_pBDTEntryEP0OutCurrent+1,fsr2h
  3513  0020F6  62DF               	cpfseq	indf2,c
  3514  0020F8  D013               	goto	i2l4442
  3515  0020FA  0E84               	movlw	132
  3516  0020FC  C068  FFD9         	movff	_pBDTEntryIn,fsr2l
  3517  002100  C069  FFDA         	movff	_pBDTEntryIn+1,fsr2h
  3518  002104  62DF               	cpfseq	indf2,c
  3519  002106  D00C               	goto	i2l4442
  3520                           
  3521                           ;usb_device.c: 2218: {
  3522                           ;usb_device.c: 2220: pBDTEntryEP0OutCurrent->STAT.Val = 0x00|(0x08 & 0x08)|0x04;
  3523  002108  C038  FFD9         	movff	_pBDTEntryEP0OutCurrent,fsr2l
  3524  00210C  C039  FFDA         	movff	_pBDTEntryEP0OutCurrent+1,fsr2h
  3525  002110  0E0C               	movlw	12
  3526  002112  6EDF               	movwf	indf2,c
  3527                           
  3528                           ;usb_device.c: 2221: pBDTEntryEP0OutCurrent->STAT.Val |= 0x80;
  3529  002114  C038  FFD9         	movff	_pBDTEntryEP0OutCurrent,fsr2l
  3530  002118  C039  FFDA         	movff	_pBDTEntryEP0OutCurrent+1,fsr2h
  3531  00211C  0E00               	movlw	0
  3532  00211E  8EDB               	bsf	plusw2,7,c
  3533  002120                     i2l4442:
  3534                           
  3535                           ;usb_device.c: 2222: }
  3536                           ;usb_device.c: 2223: UEP0bits.EPSTALL = 0;
  3537  002120  9070               	bcf	3952,0,c	;volatile
  3538  002122                     i2l504:
  3539                           
  3540                           ;usb_device.c: 2224: }
  3541                           ;usb_device.c: 2226: (UIR &= 0xDF);
  3542  002122  9A68               	bcf	3944,5,c	;volatile
  3543  002124  0012               	return	
  3544  002126                     __end_of_USBStallHandler:
  3545                           	opt stack 0
  3546                           pclatu	equ	0xFFB
  3547                           pclath	equ	0xFFA
  3548                           tblptru	equ	0xFF8
  3549                           tblptrh	equ	0xFF7
  3550                           tblptrl	equ	0xFF6
  3551                           tablat	equ	0xFF5
  3552                           prodh	equ	0xFF4
  3553                           prodl	equ	0xFF3
  3554                           intcon	equ	0xFF2
  3555                           postinc0	equ	0xFEE
  3556                           fsr0h	equ	0xFEA
  3557                           fsr0l	equ	0xFE9
  3558                           wreg	equ	0xFE8
  3559                           fsr1h	equ	0xFE2
  3560                           fsr1l	equ	0xFE1
  3561                           bsr	equ	0xFE0
  3562                           indf2	equ	0xFDF
  3563                           postinc2	equ	0xFDE
  3564                           postdec2	equ	0xFDD
  3565                           plusw2	equ	0xFDB
  3566                           fsr2h	equ	0xFDA
  3567                           fsr2l	equ	0xFD9
  3568                           status	equ	0xFD8
  3569                           
  3570 ;; *************** function _USBCtrlEPService *****************
  3571 ;; Defined at:
  3572 ;;		line 2369 in file "../src/usb/src/usb_device.c"
  3573 ;; Parameters:    Size  Location     Type
  3574 ;;		None
  3575 ;; Auto vars:     Size  Location     Type
  3576 ;;  setup_cnt       1    0[BANK0 ] unsigned char 
  3577 ;; Return value:  Size  Location     Type
  3578 ;;		None               void
  3579 ;; Registers used:
  3580 ;;		wreg, fsr1l, fsr1h, fsr2l, fsr2h, status,2, status,0, tblptrl, tblptrh, tblptru, prodl, prodh, cstack
  3581 ;; Tracked objects:
  3582 ;;		On entry : 0/0
  3583 ;;		On exit  : 0/0
  3584 ;;		Unchanged: 0/0
  3585 ;; Data sizes:     COMRAM   BANK0   BANK1   BANK2   BANK3   BANK4   BANK5   BANK6   BANK7
  3586 ;;      Params:         0       0       0       0       0       0       0       0       0
  3587 ;;      Locals:         0       1       0       0       0       0       0       0       0
  3588 ;;      Temps:          2       0       0       0       0       0       0       0       0
  3589 ;;      Totals:         2       1       0       0       0       0       0       0       0
  3590 ;;Total ram usage:        3 bytes
  3591 ;; Hardware stack levels used:    1
  3592 ;; Hardware stack levels required when called:    7
  3593 ;; This function calls:
  3594 ;;		_USBCtrlTrfInHandler
  3595 ;;		_USBCtrlTrfOutHandler
  3596 ;;		_USBCtrlTrfSetupHandler
  3597 ;; This function is called by:
  3598 ;;		_USBDeviceTasks
  3599 ;; This function uses a non-reentrant model
  3600 ;;
  3601                           
  3602                           	psect	text18
  3603  001856                     __ptext18:
  3604                           	opt stack 0
  3605  001856                     _USBCtrlEPService:
  3606                           	opt stack 17
  3607                           
  3608                           ;usb_device.c: 2375: USBStatusStageTimeoutCounter = (uint8_t)45;
  3609                           
  3610                           ;incstack = 0
  3611  001856  0E2D               	movlw	45
  3612  001858  6E46               	movwf	_USBStatusStageTimeoutCounter,c	;volatile
  3613                           
  3614                           ;usb_device.c: 2379: if((USTATcopy.Val & ~0x02) == 0x00)
  3615  00185A  C04C  F032         	movff	_USTATcopy,??_USBCtrlEPService	;volatile
  3616  00185E  0EFD               	movlw	253
  3617  001860  1632               	andwf	??_USBCtrlEPService,f,c
  3618  001862  A4D8               	btfss	status,2,c
  3619  001864  D05E               	goto	i2l4476
  3620                           
  3621                           ;usb_device.c: 2380: {
  3622                           ;usb_device.c: 2383: pBDTEntryEP0OutCurrent = (volatile BDT_ENTRY*)&BDT[(USTATcopy.Val &
      +                           0x7E)>>1];
  3623  001866  C04C  F032         	movff	_USTATcopy,??_USBCtrlEPService	;volatile
  3624  00186A  90D8               	bcf	status,0,c
  3625  00186C  3232               	rrcf	??_USBCtrlEPService,f,c
  3626  00186E  0E3F               	movlw	63
  3627  001870  1632               	andwf	??_USBCtrlEPService,f,c
  3628  001872  5032               	movf	??_USBCtrlEPService,w,c
  3629  001874  0D04               	mullw	4
  3630  001876  0104               	movlb	4	; () banked
  3631  001878  0E00               	movlw	0	;volatile
  3632  00187A  24F3               	addwf	prodl,w,c
  3633  00187C  6E38               	movwf	_pBDTEntryEP0OutCurrent,c
  3634  00187E  0104               	movlb	4	; () banked
  3635  001880  0E04               	movlw	4	;volatile
  3636  001882  20F4               	addwfc	prodh,w,c
  3637  001884  6E39               	movwf	_pBDTEntryEP0OutCurrent+1,c
  3638                           
  3639                           ; BSR set to: 4
  3640                           ;usb_device.c: 2391: pBDTEntryEP0OutNext = pBDTEntryEP0OutCurrent;
  3641  001886  C039  F03B         	movff	_pBDTEntryEP0OutCurrent+1,_pBDTEntryEP0OutNext+1
  3642  00188A  C038  F03A         	movff	_pBDTEntryEP0OutCurrent,_pBDTEntryEP0OutNext
  3643                           
  3644                           ; BSR set to: 4
  3645                           ;usb_device.c: 2393: ((uint8_t_VAL*)&pBDTEntryEP0OutNext)->Val ^= 0x0004;
  3646  00188E  0E04               	movlw	4
  3647  001890  1A3A               	xorwf	_pBDTEntryEP0OutNext,f,c
  3648                           
  3649                           ; BSR set to: 4
  3650                           ;usb_device.c: 2396: if(pBDTEntryEP0OutCurrent->STAT.PID == 0xD)
  3651  001892  C038  FFD9         	movff	_pBDTEntryEP0OutCurrent,fsr2l
  3652  001896  C039  FFDA         	movff	_pBDTEntryEP0OutCurrent+1,fsr2h
  3653  00189A  30DF               	rrcf	indf2,w,c
  3654  00189C  32E8               	rrcf	wreg,f,c
  3655  00189E  0B0F               	andlw	15
  3656  0018A0  0A0D               	xorlw	13
  3657  0018A2  A4D8               	btfss	status,2,c
  3658  0018A4  D03B               	goto	i2l4474
  3659                           
  3660                           ; BSR set to: 4
  3661                           ;usb_device.c: 2397: {
  3662                           ;usb_device.c: 2398: unsigned char setup_cnt;
  3663                           ;usb_device.c: 2404: for(setup_cnt = 0; setup_cnt < 8u; setup_cnt++)
  3664  0018A6  0E00               	movlw	0
  3665  0018A8  0100               	movlb	0	; () banked
  3666  0018AA  6F80               	movwf	USBCtrlEPService@setup_cnt& (0+255),b
  3667  0018AC  D026               	goto	L10
  3668  0018AE                     i2l4462:
  3669                           
  3670                           ; BSR set to: 0
  3671                           ;usb_device.c: 2405: {
  3672                           ;usb_device.c: 2406: *(uint8_t*)((uint8_t*)&SetupPkt + setup_cnt) = *(uint8_t*)((void *)
      +                          (pBDTEntryEP0OutCurrent->ADR));
  3673  0018AE  EE20 F002          	lfsr	2,2
  3674  0018B2  5038               	movf	_pBDTEntryEP0OutCurrent,w,c
  3675  0018B4  26D9               	addwf	fsr2l,f,c
  3676  0018B6  5039               	movf	_pBDTEntryEP0OutCurrent+1,w,c
  3677  0018B8  22DA               	addwfc	fsr2h,f,c
  3678  0018BA  CFDE F032          	movff	postinc2,??_USBCtrlEPService
  3679  0018BE  CFDD F033          	movff	postdec2,??_USBCtrlEPService+1
  3680  0018C2  C032  FFD9         	movff	??_USBCtrlEPService,fsr2l
  3681  0018C6  C033  FFDA         	movff	??_USBCtrlEPService+1,fsr2h
  3682  0018CA  0100               	movlb	0	; () banked
  3683  0018CC  5180               	movf	USBCtrlEPService@setup_cnt& (0+255),w,b
  3684  0018CE  0D01               	mullw	1
  3685  0018D0  0104               	movlb	4	; () banked
  3686  0018D2  0E20               	movlw	32	;volatile
  3687  0018D4  24F3               	addwf	prodl,w,c
  3688  0018D6  6EE1               	movwf	fsr1l,c
  3689  0018D8  0104               	movlb	4	; () banked
  3690  0018DA  0E04               	movlw	4	;volatile
  3691  0018DC  20F4               	addwfc	prodh,w,c
  3692  0018DE  6EE2               	movwf	fsr1h,c
  3693  0018E0  CFDF FFE7          	movff	indf2,indf1
  3694                           
  3695                           ; BSR set to: 4
  3696                           ;usb_device.c: 2407: pBDTEntryEP0OutCurrent->ADR++;
  3697  0018E4  EE20 F002          	lfsr	2,2
  3698  0018E8  5038               	movf	_pBDTEntryEP0OutCurrent,w,c
  3699  0018EA  26D9               	addwf	fsr2l,f,c
  3700  0018EC  5039               	movf	_pBDTEntryEP0OutCurrent+1,w,c
  3701  0018EE  22DA               	addwfc	fsr2h,f,c
  3702  0018F0  2ADE               	incf	postinc2,f,c
  3703  0018F2  0E00               	movlw	0
  3704  0018F4  22DD               	addwfc	postdec2,f,c
  3705                           
  3706                           ; BSR set to: 4
  3707  0018F6  0100               	movlb	0	; () banked
  3708  0018F8  2B80               	incf	USBCtrlEPService@setup_cnt& (0+255),f,b
  3709  0018FA                     L10:
  3710                           
  3711                           ; BSR set to: 0
  3712  0018FA  0E07               	movlw	7
  3713  0018FC  0100               	movlb	0	; () banked
  3714  0018FE  6580               	cpfsgt	USBCtrlEPService@setup_cnt& (0+255),b
  3715  001900  D7D6               	goto	i2l4462
  3716                           
  3717                           ; BSR set to: 0
  3718                           ;usb_device.c: 2408: }
  3719                           ;usb_device.c: 2409: pBDTEntryEP0OutCurrent->ADR = ((uint16_t)(&SetupPkt));
  3720                           
  3721                           ; BSR set to: 0
  3722  001902  EE20 F002          	lfsr	2,2
  3723  001906  5038               	movf	_pBDTEntryEP0OutCurrent,w,c
  3724  001908  26D9               	addwf	fsr2l,f,c
  3725  00190A  5039               	movf	_pBDTEntryEP0OutCurrent+1,w,c
  3726  00190C  22DA               	addwfc	fsr2h,f,c
  3727  00190E  0E20               	movlw	32
  3728  001910  6EDE               	movwf	postinc2,c
  3729  001912  0E04               	movlw	4
  3730  001914  6EDD               	movwf	postdec2,c
  3731                           
  3732                           ; BSR set to: 0
  3733                           ;usb_device.c: 2412: USBCtrlTrfSetupHandler();
  3734  001916  EC28  F00F         	call	_USBCtrlTrfSetupHandler	;wreg free
  3735                           
  3736                           ;usb_device.c: 2413: }
  3737  00191A  D00C               	goto	i2l525
  3738  00191C                     i2l4474:
  3739                           
  3740                           ;usb_device.c: 2414: else
  3741                           ;usb_device.c: 2415: {
  3742                           ;usb_device.c: 2417: USBCtrlTrfOutHandler();
  3743  00191C  EC23  F010         	call	_USBCtrlTrfOutHandler	;wreg free
  3744  001920  D009               	goto	i2l525
  3745  001922                     i2l4476:
  3746                           
  3747                           ;usb_device.c: 2420: else if((USTATcopy.Val & ~0x02) == 0x04)
  3748  001922  C04C  F032         	movff	_USTATcopy,??_USBCtrlEPService	;volatile
  3749  001926  0EFD               	movlw	253
  3750  001928  1632               	andwf	??_USBCtrlEPService,f,c
  3751  00192A  5032               	movf	??_USBCtrlEPService,w,c
  3752  00192C  0A04               	xorlw	4
  3753  00192E  B4D8               	btfsc	status,2,c
  3754                           
  3755                           ;usb_device.c: 2421: {
  3756                           ;usb_device.c: 2424: USBCtrlTrfInHandler();
  3757  001930  EC35  F00E         	call	_USBCtrlTrfInHandler	;wreg free
  3758  001934                     i2l525:
  3759  001934  0012               	return	
  3760  001936                     __end_of_USBCtrlEPService:
  3761                           	opt stack 0
  3762                           pclatu	equ	0xFFB
  3763                           pclath	equ	0xFFA
  3764                           tblptru	equ	0xFF8
  3765                           tblptrh	equ	0xFF7
  3766                           tblptrl	equ	0xFF6
  3767                           tablat	equ	0xFF5
  3768                           prodh	equ	0xFF4
  3769                           prodl	equ	0xFF3
  3770                           intcon	equ	0xFF2
  3771                           postinc0	equ	0xFEE
  3772                           fsr0h	equ	0xFEA
  3773                           fsr0l	equ	0xFE9
  3774                           wreg	equ	0xFE8
  3775                           indf1	equ	0xFE7
  3776                           fsr1h	equ	0xFE2
  3777                           fsr1l	equ	0xFE1
  3778                           bsr	equ	0xFE0
  3779                           indf2	equ	0xFDF
  3780                           postinc2	equ	0xFDE
  3781                           postdec2	equ	0xFDD
  3782                           plusw2	equ	0xFDB
  3783                           fsr2h	equ	0xFDA
  3784                           fsr2l	equ	0xFD9
  3785                           status	equ	0xFD8
  3786                           
  3787 ;; *************** function _USBCtrlTrfSetupHandler *****************
  3788 ;; Defined at:
  3789 ;;		line 2469 in file "../src/usb/src/usb_device.c"
  3790 ;; Parameters:    Size  Location     Type
  3791 ;;		None
  3792 ;; Auto vars:     Size  Location     Type
  3793 ;;		None
  3794 ;; Return value:  Size  Location     Type
  3795 ;;		None               void
  3796 ;; Registers used:
  3797 ;;		wreg, fsr1l, fsr1h, fsr2l, fsr2h, status,2, status,0, tblptrl, tblptrh, tblptru, prodl, prodh, cstack
  3798 ;; Tracked objects:
  3799 ;;		On entry : 0/0
  3800 ;;		On exit  : 0/0
  3801 ;;		Unchanged: 0/0
  3802 ;; Data sizes:     COMRAM   BANK0   BANK1   BANK2   BANK3   BANK4   BANK5   BANK6   BANK7
  3803 ;;      Params:         0       0       0       0       0       0       0       0       0
  3804 ;;      Locals:         0       0       0       0       0       0       0       0       0
  3805 ;;      Temps:          0       0       0       0       0       0       0       0       0
  3806 ;;      Totals:         0       0       0       0       0       0       0       0       0
  3807 ;;Total ram usage:        0 bytes
  3808 ;; Hardware stack levels used:    1
  3809 ;; Hardware stack levels required when called:    6
  3810 ;; This function calls:
  3811 ;;		_USBCheckStdRequest
  3812 ;;		_USBCtrlEPServiceComplete
  3813 ;;		_USER_USB_CALLBACK_EVENT_HANDLER
  3814 ;; This function is called by:
  3815 ;;		_USBCtrlEPService
  3816 ;; This function uses a non-reentrant model
  3817 ;;
  3818                           
  3819                           	psect	text19
  3820  001E50                     __ptext19:
  3821                           	opt stack 0
  3822  001E50                     _USBCtrlTrfSetupHandler:
  3823                           	opt stack 17
  3824                           
  3825                           ;usb_device.c: 2474: shortPacketStatus = 0;
  3826                           
  3827                           ;incstack = 0
  3828  001E50  0E00               	movlw	0
  3829  001E52  6E49               	movwf	_shortPacketStatus,c	;volatile
  3830                           
  3831                           ;usb_device.c: 2475: USBDeferStatusStagePacket = 0;
  3832  001E54  0E00               	movlw	0
  3833  001E56  6E43               	movwf	_USBDeferStatusStagePacket,c	;volatile
  3834                           
  3835                           ;usb_device.c: 2476: USBDeferINDataStagePackets = 0;
  3836  001E58  0E00               	movlw	0
  3837  001E5A  6E41               	movwf	_USBDeferINDataStagePackets,c	;volatile
  3838                           
  3839                           ;usb_device.c: 2477: USBDeferOUTDataStagePackets = 0;
  3840  001E5C  0E00               	movlw	0
  3841  001E5E  6E42               	movwf	_USBDeferOUTDataStagePackets,c	;volatile
  3842                           
  3843                           ;usb_device.c: 2478: BothEP0OutUOWNsSet = 0;
  3844  001E60  0E00               	movlw	0
  3845  001E62  6E3E               	movwf	_BothEP0OutUOWNsSet,c	;volatile
  3846                           
  3847                           ;usb_device.c: 2479: controlTransferState = 0;
  3848  001E64  0E00               	movlw	0
  3849  001E66  6E47               	movwf	_controlTransferState,c	;volatile
  3850                           
  3851                           ;usb_device.c: 2488: pBDTEntryIn[0]->STAT.Val &= ~(0x80);
  3852  001E68  C068  FFD9         	movff	_pBDTEntryIn,fsr2l
  3853  001E6C  C069  FFDA         	movff	_pBDTEntryIn+1,fsr2h
  3854  001E70  0E7F               	movlw	127
  3855  001E72  16DF               	andwf	indf2,f,c
  3856                           
  3857                           ;usb_device.c: 2489: ((uint8_t_VAL*)&pBDTEntryIn[0])->Val ^= 0x0004;
  3858  001E74  0E04               	movlw	4
  3859  001E76  0100               	movlb	0	; () banked
  3860  001E78  1B68               	xorwf	_pBDTEntryIn& (0+255),f,b
  3861                           
  3862                           ; BSR set to: 0
  3863                           ;usb_device.c: 2490: pBDTEntryIn[0]->STAT.Val &= ~(0x80);
  3864  001E7A  C068  FFD9         	movff	_pBDTEntryIn,fsr2l
  3865  001E7E  C069  FFDA         	movff	_pBDTEntryIn+1,fsr2h
  3866  001E82  0E7F               	movlw	127
  3867  001E84  16DF               	andwf	indf2,f,c
  3868                           
  3869                           ; BSR set to: 0
  3870                           ;usb_device.c: 2491: ((uint8_t_VAL*)&pBDTEntryIn[0])->Val ^= 0x0004;
  3871  001E86  0E04               	movlw	4
  3872  001E88  0100               	movlb	0	; () banked
  3873  001E8A  1B68               	xorwf	_pBDTEntryIn& (0+255),f,b
  3874                           
  3875                           ; BSR set to: 0
  3876                           ;usb_device.c: 2492: pBDTEntryEP0OutNext->STAT.Val &= ~(0x80);
  3877  001E8C  C03A  FFD9         	movff	_pBDTEntryEP0OutNext,fsr2l
  3878  001E90  C03B  FFDA         	movff	_pBDTEntryEP0OutNext+1,fsr2h
  3879  001E94  0E7F               	movlw	127
  3880  001E96  16DF               	andwf	indf2,f,c
  3881                           
  3882                           ; BSR set to: 0
  3883                           ;usb_device.c: 2494: inPipes[0].info.Val = 0;
  3884  001E98  0E00               	movlw	0
  3885  001E9A  0100               	movlb	0	; () banked
  3886  001E9C  6F7D               	movwf	(_inPipes+3)& (0+255),b	;volatile
  3887                           
  3888                           ; BSR set to: 0
  3889                           ;usb_device.c: 2495: inPipes[0].wCount.Val = 0;
  3890  001E9E  0E00               	movlw	0
  3891  001EA0  0100               	movlb	0	; () banked
  3892  001EA2  6F7F               	movwf	(_inPipes+5)& (0+255),b	;volatile
  3893  001EA4  0E00               	movlw	0
  3894  001EA6  0100               	movlb	0	; () banked
  3895  001EA8  6F7E               	movwf	(_inPipes+4)& (0+255),b	;volatile
  3896                           
  3897                           ; BSR set to: 0
  3898                           ;usb_device.c: 2496: outPipes[0].info.Val = 0;
  3899  001EAA  0E00               	movlw	0
  3900  001EAC  0100               	movlb	0	; () banked
  3901  001EAE  6F63               	movwf	(_outPipes+3)& (0+255),b	;volatile
  3902                           
  3903                           ; BSR set to: 0
  3904                           ;usb_device.c: 2497: outPipes[0].wCount.Val = 0;
  3905  001EB0  0E00               	movlw	0
  3906  001EB2  0100               	movlb	0	; () banked
  3907  001EB4  6F65               	movwf	(_outPipes+5)& (0+255),b	;volatile
  3908  001EB6  0E00               	movlw	0
  3909  001EB8  0100               	movlb	0	; () banked
  3910  001EBA  6F64               	movwf	(_outPipes+4)& (0+255),b	;volatile
  3911                           
  3912                           ; BSR set to: 0
  3913                           ;usb_device.c: 2503: USBCheckStdRequest();
  3914  001EBC  ECB3  F00B         	call	_USBCheckStdRequest	;wreg free
  3915                           
  3916                           ;usb_device.c: 2504: USER_USB_CALLBACK_EVENT_HANDLER(EVENT_EP0_REQUEST,0,0);
  3917  001EC0  0E00               	movlw	0
  3918  001EC2  6E21               	movwf	USER_USB_CALLBACK_EVENT_HANDLER@event+1,c
  3919  001EC4  0E03               	movlw	3
  3920  001EC6  6E20               	movwf	USER_USB_CALLBACK_EVENT_HANDLER@event,c
  3921  001EC8  0E00               	movlw	0
  3922  001ECA  6E23               	movwf	USER_USB_CALLBACK_EVENT_HANDLER@pdata+1,c
  3923  001ECC  0E00               	movlw	0
  3924  001ECE  6E22               	movwf	USER_USB_CALLBACK_EVENT_HANDLER@pdata,c
  3925  001ED0  0E00               	movlw	0
  3926  001ED2  6E25               	movwf	USER_USB_CALLBACK_EVENT_HANDLER@size+1,c
  3927  001ED4  0E00               	movlw	0
  3928  001ED6  6E24               	movwf	USER_USB_CALLBACK_EVENT_HANDLER@size,c
  3929  001ED8  ECAF  F00F         	call	_USER_USB_CALLBACK_EVENT_HANDLER	;wreg free
  3930                           
  3931                           ;usb_device.c: 2517: USBCtrlEPServiceComplete();
  3932  001EDC  EC3B  F00B         	call	_USBCtrlEPServiceComplete	;wreg free
  3933  001EE0  0012               	return	
  3934  001EE2                     __end_of_USBCtrlTrfSetupHandler:
  3935                           	opt stack 0
  3936                           pclatu	equ	0xFFB
  3937                           pclath	equ	0xFFA
  3938                           tblptru	equ	0xFF8
  3939                           tblptrh	equ	0xFF7
  3940                           tblptrl	equ	0xFF6
  3941                           tablat	equ	0xFF5
  3942                           prodh	equ	0xFF4
  3943                           prodl	equ	0xFF3
  3944                           intcon	equ	0xFF2
  3945                           postinc0	equ	0xFEE
  3946                           fsr0h	equ	0xFEA
  3947                           fsr0l	equ	0xFE9
  3948                           wreg	equ	0xFE8
  3949                           indf1	equ	0xFE7
  3950                           fsr1h	equ	0xFE2
  3951                           fsr1l	equ	0xFE1
  3952                           bsr	equ	0xFE0
  3953                           indf2	equ	0xFDF
  3954                           postinc2	equ	0xFDE
  3955                           postdec2	equ	0xFDD
  3956                           plusw2	equ	0xFDB
  3957                           fsr2h	equ	0xFDA
  3958                           fsr2l	equ	0xFD9
  3959                           status	equ	0xFD8
  3960                           
  3961 ;; *************** function _USBCtrlEPServiceComplete *****************
  3962 ;; Defined at:
  3963 ;;		line 1616 in file "../src/usb/src/usb_device.c"
  3964 ;; Parameters:    Size  Location     Type
  3965 ;;		None
  3966 ;; Auto vars:     Size  Location     Type
  3967 ;;		None
  3968 ;; Return value:  Size  Location     Type
  3969 ;;		None               void
  3970 ;; Registers used:
  3971 ;;		wreg, fsr1l, fsr1h, fsr2l, fsr2h, status,2, status,0, tblptrl, tblptrh, tblptru, cstack
  3972 ;; Tracked objects:
  3973 ;;		On entry : 0/0
  3974 ;;		On exit  : 0/0
  3975 ;;		Unchanged: 0/0
  3976 ;; Data sizes:     COMRAM   BANK0   BANK1   BANK2   BANK3   BANK4   BANK5   BANK6   BANK7
  3977 ;;      Params:         0       0       0       0       0       0       0       0       0
  3978 ;;      Locals:         0       0       0       0       0       0       0       0       0
  3979 ;;      Temps:          0       0       0       0       0       0       0       0       0
  3980 ;;      Totals:         0       0       0       0       0       0       0       0       0
  3981 ;;Total ram usage:        0 bytes
  3982 ;; Hardware stack levels used:    1
  3983 ;; Hardware stack levels required when called:    2
  3984 ;; This function calls:
  3985 ;;		_USBCtrlEPAllowDataStage
  3986 ;;		_USBCtrlEPAllowStatusStage
  3987 ;; This function is called by:
  3988 ;;		_USBCtrlTrfSetupHandler
  3989 ;; This function uses a non-reentrant model
  3990 ;;
  3991                           
  3992                           	psect	text20
  3993  001676                     __ptext20:
  3994                           	opt stack 0
  3995  001676                     _USBCtrlEPServiceComplete:
  3996                           	opt stack 20
  3997                           
  3998                           ;usb_device.c: 1622: UCONbits.PKTDIS = 0;
  3999                           
  4000                           ;incstack = 0
  4001  001676  986D               	bcf	3949,4,c	;volatile
  4002                           
  4003                           ;usb_device.c: 1628: if(inPipes[0].info.bits.busy == 0)
  4004  001678  0100               	movlb	0	; () banked
  4005  00167A  BF7D               	btfsc	(_inPipes+3)& (0+255),7,b	;volatile
  4006  00167C  D039               	goto	i2l428
  4007                           
  4008                           ; BSR set to: 0
  4009                           ;usb_device.c: 1629: {
  4010                           ;usb_device.c: 1630: if(outPipes[0].info.bits.busy == 1)
  4011  00167E  0100               	movlb	0	; () banked
  4012  001680  AF63               	btfss	(_outPipes+3)& (0+255),7,b	;volatile
  4013  001682  D00B               	goto	i2l4210
  4014                           
  4015                           ; BSR set to: 0
  4016                           ;usb_device.c: 1631: {
  4017                           ;usb_device.c: 1632: controlTransferState = 2;
  4018  001684  0E02               	movlw	2
  4019  001686  6E47               	movwf	_controlTransferState,c	;volatile
  4020                           
  4021                           ; BSR set to: 0
  4022                           ;usb_device.c: 1643: if(USBDeferOUTDataStagePackets == 0)
  4023  001688  6642               	tstfsz	_USBDeferOUTDataStagePackets,c	;volatile
  4024  00168A  D002               	goto	i2l4206
  4025                           
  4026                           ; BSR set to: 0
  4027                           ;usb_device.c: 1644: {
  4028                           ;usb_device.c: 1645: USBCtrlEPAllowDataStage();
  4029  00168C  EC8A  F00E         	call	_USBCtrlEPAllowDataStage	;wreg free
  4030  001690                     i2l4206:
  4031                           
  4032                           ;usb_device.c: 1646: }
  4033                           ;usb_device.c: 1650: USBStatusStageEnabledFlag2 = 0;
  4034  001690  0E00               	movlw	0
  4035  001692  6E45               	movwf	_USBStatusStageEnabledFlag2,c	;volatile
  4036                           
  4037                           ;usb_device.c: 1651: USBStatusStageEnabledFlag1 = 0;
  4038  001694  0E00               	movlw	0
  4039  001696  6E44               	movwf	_USBStatusStageEnabledFlag1,c	;volatile
  4040                           
  4041                           ;usb_device.c: 1652: }
  4042  001698  D065               	goto	i2l438
  4043  00169A                     i2l4210:
  4044                           
  4045                           ;usb_device.c: 1653: else
  4046                           ;usb_device.c: 1654: {
  4047                           ;usb_device.c: 1659: pBDTEntryEP0OutNext->CNT = 8;
  4048  00169A  EE20 F001          	lfsr	2,1
  4049  00169E  503A               	movf	_pBDTEntryEP0OutNext,w,c
  4050  0016A0  26D9               	addwf	fsr2l,f,c
  4051  0016A2  503B               	movf	_pBDTEntryEP0OutNext+1,w,c
  4052  0016A4  22DA               	addwfc	fsr2h,f,c
  4053  0016A6  0E08               	movlw	8
  4054  0016A8  6EDF               	movwf	indf2,c
  4055                           
  4056                           ;usb_device.c: 1660: pBDTEntryEP0OutNext->ADR = ((uint16_t)(&SetupPkt));
  4057  0016AA  EE20 F002          	lfsr	2,2
  4058  0016AE  503A               	movf	_pBDTEntryEP0OutNext,w,c
  4059  0016B0  26D9               	addwf	fsr2l,f,c
  4060  0016B2  503B               	movf	_pBDTEntryEP0OutNext+1,w,c
  4061  0016B4  22DA               	addwfc	fsr2h,f,c
  4062  0016B6  0E20               	movlw	32
  4063  0016B8  6EDE               	movwf	postinc2,c
  4064  0016BA  0E04               	movlw	4
  4065  0016BC  6EDD               	movwf	postdec2,c
  4066                           
  4067                           ;usb_device.c: 1661: pBDTEntryEP0OutNext->STAT.Val = 0x00|(0x08 & 0x08)|0x04;
  4068  0016BE  C03A  FFD9         	movff	_pBDTEntryEP0OutNext,fsr2l
  4069  0016C2  C03B  FFDA         	movff	_pBDTEntryEP0OutNext+1,fsr2h
  4070  0016C6  0E0C               	movlw	12
  4071  0016C8  6EDF               	movwf	indf2,c
  4072                           
  4073                           ;usb_device.c: 1662: pBDTEntryEP0OutNext->STAT.Val |= 0x80;
  4074  0016CA  C03A  FFD9         	movff	_pBDTEntryEP0OutNext,fsr2l
  4075  0016CE  C03B  FFDA         	movff	_pBDTEntryEP0OutNext+1,fsr2h
  4076  0016D2  0E00               	movlw	0
  4077  0016D4  8EDB               	bsf	plusw2,7,c
  4078                           
  4079                           ;usb_device.c: 1663: pBDTEntryIn[0]->STAT.Val = 0x04;
  4080  0016D6  C068  FFD9         	movff	_pBDTEntryIn,fsr2l
  4081  0016DA  C069  FFDA         	movff	_pBDTEntryIn+1,fsr2h
  4082  0016DE  0E04               	movlw	4
  4083  0016E0  6EDF               	movwf	indf2,c
  4084                           
  4085                           ;usb_device.c: 1664: pBDTEntryIn[0]->STAT.Val |= 0x80;
  4086  0016E2  C068  FFD9         	movff	_pBDTEntryIn,fsr2l
  4087  0016E6  C069  FFDA         	movff	_pBDTEntryIn+1,fsr2h
  4088  0016EA  0E00               	movlw	0
  4089  0016EC  8EDB               	bsf	plusw2,7,c
  4090  0016EE  D03A               	goto	i2l438
  4091  0016F0                     i2l428:
  4092                           
  4093                           ; BSR set to: 0
  4094                           ;usb_device.c: 1667: else
  4095                           ;usb_device.c: 1668: {
  4096                           ;usb_device.c: 1669: if(SetupPkt.DataDir == (0x80>>7))
  4097  0016F0  0104               	movlb	4	; () banked
  4098  0016F2  AF20               	btfss	32,7,b	;volatile
  4099  0016F4  D00F               	goto	i2l4232
  4100                           
  4101                           ; BSR set to: 4
  4102                           ;usb_device.c: 1670: {
  4103                           ;usb_device.c: 1671: controlTransferState = 1;
  4104  0016F6  0E01               	movlw	1
  4105  0016F8  6E47               	movwf	_controlTransferState,c	;volatile
  4106                           
  4107                           ; BSR set to: 4
  4108                           ;usb_device.c: 1685: if(USBDeferINDataStagePackets == 0)
  4109  0016FA  6641               	tstfsz	_USBDeferINDataStagePackets,c	;volatile
  4110  0016FC  D002               	goto	i2l4224
  4111                           
  4112                           ; BSR set to: 4
  4113                           ;usb_device.c: 1686: {
  4114                           ;usb_device.c: 1687: USBCtrlEPAllowDataStage();
  4115  0016FE  EC8A  F00E         	call	_USBCtrlEPAllowDataStage	;wreg free
  4116  001702                     i2l4224:
  4117                           
  4118                           ;usb_device.c: 1688: }
  4119                           ;usb_device.c: 1710: USBStatusStageEnabledFlag2 = 0;
  4120  001702  0E00               	movlw	0
  4121  001704  6E45               	movwf	_USBStatusStageEnabledFlag2,c	;volatile
  4122                           
  4123                           ;usb_device.c: 1711: USBStatusStageEnabledFlag1 = 0;
  4124  001706  0E00               	movlw	0
  4125  001708  6E44               	movwf	_USBStatusStageEnabledFlag1,c	;volatile
  4126                           
  4127                           ;usb_device.c: 1712: if(USBDeferStatusStagePacket == 0)
  4128  00170A  6643               	tstfsz	_USBDeferStatusStagePacket,c	;volatile
  4129  00170C  D02B               	goto	i2l438
  4130                           
  4131                           ;usb_device.c: 1713: {
  4132                           ;usb_device.c: 1714: USBCtrlEPAllowStatusStage();
  4133  00170E  ECD3  F00D         	call	_USBCtrlEPAllowStatusStage	;wreg free
  4134  001712  D028               	goto	i2l438
  4135  001714                     i2l4232:
  4136                           
  4137                           ;usb_device.c: 1717: else
  4138                           ;usb_device.c: 1718: {
  4139                           ;usb_device.c: 1729: controlTransferState = 2;
  4140  001714  0E02               	movlw	2
  4141  001716  6E47               	movwf	_controlTransferState,c	;volatile
  4142                           
  4143                           ;usb_device.c: 1732: pBDTEntryEP0OutNext->CNT = 8;
  4144  001718  EE20 F001          	lfsr	2,1
  4145  00171C  503A               	movf	_pBDTEntryEP0OutNext,w,c
  4146  00171E  26D9               	addwf	fsr2l,f,c
  4147  001720  503B               	movf	_pBDTEntryEP0OutNext+1,w,c
  4148  001722  22DA               	addwfc	fsr2h,f,c
  4149  001724  0E08               	movlw	8
  4150  001726  6EDF               	movwf	indf2,c
  4151                           
  4152                           ;usb_device.c: 1733: pBDTEntryEP0OutNext->ADR = ((uint16_t)(&SetupPkt));
  4153  001728  EE20 F002          	lfsr	2,2
  4154  00172C  503A               	movf	_pBDTEntryEP0OutNext,w,c
  4155  00172E  26D9               	addwf	fsr2l,f,c
  4156  001730  503B               	movf	_pBDTEntryEP0OutNext+1,w,c
  4157  001732  22DA               	addwfc	fsr2h,f,c
  4158  001734  0E20               	movlw	32
  4159  001736  6EDE               	movwf	postinc2,c
  4160  001738  0E04               	movlw	4
  4161  00173A  6EDD               	movwf	postdec2,c
  4162                           
  4163                           ;usb_device.c: 1734: pBDTEntryEP0OutNext->STAT.Val = 0x04;
  4164  00173C  C03A  FFD9         	movff	_pBDTEntryEP0OutNext,fsr2l
  4165  001740  C03B  FFDA         	movff	_pBDTEntryEP0OutNext+1,fsr2h
  4166  001744  0E04               	movlw	4
  4167  001746  6EDF               	movwf	indf2,c
  4168                           
  4169                           ;usb_device.c: 1735: pBDTEntryEP0OutNext->STAT.Val |= 0x80;
  4170  001748  C03A  FFD9         	movff	_pBDTEntryEP0OutNext,fsr2l
  4171  00174C  C03B  FFDA         	movff	_pBDTEntryEP0OutNext+1,fsr2h
  4172  001750  0E00               	movlw	0
  4173  001752  8EDB               	bsf	plusw2,7,c
  4174                           
  4175                           ;usb_device.c: 1738: USBStatusStageEnabledFlag2 = 0;
  4176  001754  0E00               	movlw	0
  4177  001756  6E45               	movwf	_USBStatusStageEnabledFlag2,c	;volatile
  4178                           
  4179                           ;usb_device.c: 1739: USBStatusStageEnabledFlag1 = 0;
  4180  001758  0E00               	movlw	0
  4181  00175A  6E44               	movwf	_USBStatusStageEnabledFlag1,c	;volatile
  4182                           
  4183                           ;usb_device.c: 1740: if(USBDeferStatusStagePacket == 0)
  4184  00175C  6643               	tstfsz	_USBDeferStatusStagePacket,c	;volatile
  4185  00175E  D002               	goto	i2l438
  4186                           
  4187                           ;usb_device.c: 1741: {
  4188                           ;usb_device.c: 1742: USBCtrlEPAllowStatusStage();
  4189  001760  ECD3  F00D         	call	_USBCtrlEPAllowStatusStage	;wreg free
  4190  001764                     i2l438:
  4191  001764  0012               	return	
  4192  001766                     __end_of_USBCtrlEPServiceComplete:
  4193                           	opt stack 0
  4194                           pclatu	equ	0xFFB
  4195                           pclath	equ	0xFFA
  4196                           tblptru	equ	0xFF8
  4197                           tblptrh	equ	0xFF7
  4198                           tblptrl	equ	0xFF6
  4199                           tablat	equ	0xFF5
  4200                           prodh	equ	0xFF4
  4201                           prodl	equ	0xFF3
  4202                           intcon	equ	0xFF2
  4203                           postinc0	equ	0xFEE
  4204                           fsr0h	equ	0xFEA
  4205                           fsr0l	equ	0xFE9
  4206                           wreg	equ	0xFE8
  4207                           indf1	equ	0xFE7
  4208                           fsr1h	equ	0xFE2
  4209                           fsr1l	equ	0xFE1
  4210                           bsr	equ	0xFE0
  4211                           indf2	equ	0xFDF
  4212                           postinc2	equ	0xFDE
  4213                           postdec2	equ	0xFDD
  4214                           plusw2	equ	0xFDB
  4215                           fsr2h	equ	0xFDA
  4216                           fsr2l	equ	0xFD9
  4217                           status	equ	0xFD8
  4218                           
  4219 ;; *************** function _USBCtrlEPAllowDataStage *****************
  4220 ;; Defined at:
  4221 ;;		line 1488 in file "../src/usb/src/usb_device.c"
  4222 ;; Parameters:    Size  Location     Type
  4223 ;;		None
  4224 ;; Auto vars:     Size  Location     Type
  4225 ;;		None
  4226 ;; Return value:  Size  Location     Type
  4227 ;;		None               void
  4228 ;; Registers used:
  4229 ;;		wreg, fsr1l, fsr1h, fsr2l, fsr2h, status,2, status,0, tblptrl, tblptrh, tblptru, cstack
  4230 ;; Tracked objects:
  4231 ;;		On entry : 0/0
  4232 ;;		On exit  : 0/0
  4233 ;;		Unchanged: 0/0
  4234 ;; Data sizes:     COMRAM   BANK0   BANK1   BANK2   BANK3   BANK4   BANK5   BANK6   BANK7
  4235 ;;      Params:         0       0       0       0       0       0       0       0       0
  4236 ;;      Locals:         0       0       0       0       0       0       0       0       0
  4237 ;;      Temps:          0       0       0       0       0       0       0       0       0
  4238 ;;      Totals:         0       0       0       0       0       0       0       0       0
  4239 ;;Total ram usage:        0 bytes
  4240 ;; Hardware stack levels used:    1
  4241 ;; Hardware stack levels required when called:    1
  4242 ;; This function calls:
  4243 ;;		_USBCtrlTrfTxService
  4244 ;; This function is called by:
  4245 ;;		_USBCtrlEPServiceComplete
  4246 ;; This function uses a non-reentrant model
  4247 ;;
  4248                           
  4249                           	psect	text21
  4250  001D14                     __ptext21:
  4251                           	opt stack 0
  4252  001D14                     _USBCtrlEPAllowDataStage:
  4253                           	opt stack 20
  4254                           
  4255                           ;usb_device.c: 1490: USBDeferINDataStagePackets = 0;
  4256                           
  4257                           ;incstack = 0
  4258  001D14  0E00               	movlw	0
  4259  001D16  6E41               	movwf	_USBDeferINDataStagePackets,c	;volatile
  4260                           
  4261                           ;usb_device.c: 1491: USBDeferOUTDataStagePackets = 0;
  4262  001D18  0E00               	movlw	0
  4263  001D1A  6E42               	movwf	_USBDeferOUTDataStagePackets,c	;volatile
  4264                           
  4265                           ;usb_device.c: 1493: if(controlTransferState == 2)
  4266  001D1C  5047               	movf	_controlTransferState,w,c	;volatile
  4267  001D1E  0A02               	xorlw	2
  4268  001D20  A4D8               	btfss	status,2,c
  4269  001D22  D01D               	goto	i2l4002
  4270                           
  4271                           ;usb_device.c: 1494: {
  4272                           ;usb_device.c: 1496: pBDTEntryEP0OutNext->CNT = 8;
  4273  001D24  EE20 F001          	lfsr	2,1
  4274  001D28  503A               	movf	_pBDTEntryEP0OutNext,w,c
  4275  001D2A  26D9               	addwf	fsr2l,f,c
  4276  001D2C  503B               	movf	_pBDTEntryEP0OutNext+1,w,c
  4277  001D2E  22DA               	addwfc	fsr2h,f,c
  4278  001D30  0E08               	movlw	8
  4279  001D32  6EDF               	movwf	indf2,c
  4280                           
  4281                           ;usb_device.c: 1497: pBDTEntryEP0OutNext->ADR = ((uint16_t)(&CtrlTrfData));
  4282  001D34  EE20 F002          	lfsr	2,2
  4283  001D38  503A               	movf	_pBDTEntryEP0OutNext,w,c
  4284  001D3A  26D9               	addwf	fsr2l,f,c
  4285  001D3C  503B               	movf	_pBDTEntryEP0OutNext+1,w,c
  4286  001D3E  22DA               	addwfc	fsr2h,f,c
  4287  001D40  0E28               	movlw	40
  4288  001D42  6EDE               	movwf	postinc2,c
  4289  001D44  0E04               	movlw	4
  4290  001D46  6EDD               	movwf	postdec2,c
  4291                           
  4292                           ;usb_device.c: 1498: pBDTEntryEP0OutNext->STAT.Val = 0x40|(0x08 & 0x08);
  4293  001D48  C03A  FFD9         	movff	_pBDTEntryEP0OutNext,fsr2l
  4294  001D4C  C03B  FFDA         	movff	_pBDTEntryEP0OutNext+1,fsr2h
  4295  001D50  0E48               	movlw	72
  4296  001D52  6EDF               	movwf	indf2,c
  4297                           
  4298                           ;usb_device.c: 1499: pBDTEntryEP0OutNext->STAT.Val |= 0x80;
  4299  001D54  C03A  FFD9         	movff	_pBDTEntryEP0OutNext,fsr2l
  4300  001D58  C03B  FFDA         	movff	_pBDTEntryEP0OutNext+1,fsr2h
  4301  001D5C  D027               	goto	L11
  4302  001D5E                     i2l4002:
  4303                           
  4304                           ;usb_device.c: 1501: else
  4305                           ;usb_device.c: 1502: {
  4306                           ;usb_device.c: 1505: if(SetupPkt.wLength < inPipes[0].wCount.Val)
  4307  001D5E  0100               	movlb	0	; () banked
  4308  001D60  517E               	movf	(_inPipes+4)& (0+255),w,b	;volatile
  4309  001D62  0104               	movlb	4	; () banked
  4310  001D64  5D26               	subwf	38,w,b	;volatile
  4311  001D66  0100               	movlb	0	; () banked
  4312  001D68  517F               	movf	(_inPipes+5)& (0+255),w,b	;volatile
  4313  001D6A  0104               	movlb	4	; () banked
  4314  001D6C  5927               	subwfb	39,w,b	;volatile
  4315  001D6E  B0D8               	btfsc	status,0,c
  4316  001D70  D004               	goto	i2l4006
  4317                           
  4318                           ; BSR set to: 4
  4319                           ;usb_device.c: 1506: {
  4320                           ;usb_device.c: 1507: inPipes[0].wCount.Val = SetupPkt.wLength;
  4321  001D72  C426 F07E          	movff	1062,_inPipes+4	;volatile
  4322  001D76  C427 F07F          	movff	1063,_inPipes+5	;volatile
  4323  001D7A                     i2l4006:
  4324                           
  4325                           ; BSR set to: 4
  4326                           ;usb_device.c: 1508: }
  4327                           ;usb_device.c: 1509: USBCtrlTrfTxService();
  4328  001D7A  EC9B  F00C         	call	_USBCtrlTrfTxService	;wreg free
  4329                           
  4330                           ;usb_device.c: 1514: pBDTEntryIn[0]->ADR = ((uint16_t)(&CtrlTrfData));
  4331  001D7E  0100               	movlb	0	; () banked
  4332  001D80  EE20 F002          	lfsr	2,2
  4333  001D84  0100               	movlb	0	; () banked
  4334  001D86  5168               	movf	_pBDTEntryIn& (0+255),w,b
  4335  001D88  26D9               	addwf	fsr2l,f,c
  4336  001D8A  0100               	movlb	0	; () banked
  4337  001D8C  5169               	movf	(_pBDTEntryIn+1)& (0+255),w,b
  4338  001D8E  22DA               	addwfc	fsr2h,f,c
  4339  001D90  0E28               	movlw	40
  4340  001D92  6EDE               	movwf	postinc2,c
  4341  001D94  0E04               	movlw	4
  4342  001D96  6EDD               	movwf	postdec2,c
  4343                           
  4344                           ; BSR set to: 0
  4345                           ;usb_device.c: 1515: pBDTEntryIn[0]->STAT.Val = 0x40|(0x08 & 0x08);
  4346  001D98  C068  FFD9         	movff	_pBDTEntryIn,fsr2l
  4347  001D9C  C069  FFDA         	movff	_pBDTEntryIn+1,fsr2h
  4348  001DA0  0E48               	movlw	72
  4349  001DA2  6EDF               	movwf	indf2,c
  4350                           
  4351                           ; BSR set to: 0
  4352                           ;usb_device.c: 1516: pBDTEntryIn[0]->STAT.Val |= 0x80;
  4353  001DA4  C068  FFD9         	movff	_pBDTEntryIn,fsr2l
  4354  001DA8  C069  FFDA         	movff	_pBDTEntryIn+1,fsr2h
  4355  001DAC                     L11:
  4356  001DAC  0E00               	movlw	0
  4357  001DAE  8EDB               	bsf	plusw2,7,c
  4358                           
  4359                           ; BSR set to: 0
  4360  001DB0  0012               	return	
  4361  001DB2                     __end_of_USBCtrlEPAllowDataStage:
  4362                           	opt stack 0
  4363                           pclatu	equ	0xFFB
  4364                           pclath	equ	0xFFA
  4365                           tblptru	equ	0xFF8
  4366                           tblptrh	equ	0xFF7
  4367                           tblptrl	equ	0xFF6
  4368                           tablat	equ	0xFF5
  4369                           prodh	equ	0xFF4
  4370                           prodl	equ	0xFF3
  4371                           intcon	equ	0xFF2
  4372                           postinc0	equ	0xFEE
  4373                           fsr0h	equ	0xFEA
  4374                           fsr0l	equ	0xFE9
  4375                           wreg	equ	0xFE8
  4376                           indf1	equ	0xFE7
  4377                           fsr1h	equ	0xFE2
  4378                           fsr1l	equ	0xFE1
  4379                           bsr	equ	0xFE0
  4380                           indf2	equ	0xFDF
  4381                           postinc2	equ	0xFDE
  4382                           postdec2	equ	0xFDD
  4383                           plusw2	equ	0xFDB
  4384                           fsr2h	equ	0xFDA
  4385                           fsr2l	equ	0xFD9
  4386                           status	equ	0xFD8
  4387                           
  4388 ;; *************** function _USBCheckStdRequest *****************
  4389 ;; Defined at:
  4390 ;;		line 2689 in file "../src/usb/src/usb_device.c"
  4391 ;; Parameters:    Size  Location     Type
  4392 ;;		None
  4393 ;; Auto vars:     Size  Location     Type
  4394 ;;		None
  4395 ;; Return value:  Size  Location     Type
  4396 ;;		None               void
  4397 ;; Registers used:
  4398 ;;		wreg, fsr1l, fsr1h, fsr2l, fsr2h, status,2, status,0, tblptrl, tblptrh, tblptru, prodl, prodh, cstack
  4399 ;; Tracked objects:
  4400 ;;		On entry : 0/0
  4401 ;;		On exit  : 0/0
  4402 ;;		Unchanged: 0/0
  4403 ;; Data sizes:     COMRAM   BANK0   BANK1   BANK2   BANK3   BANK4   BANK5   BANK6   BANK7
  4404 ;;      Params:         0       0       0       0       0       0       0       0       0
  4405 ;;      Locals:         0       0       0       0       0       0       0       0       0
  4406 ;;      Temps:          2       0       0       0       0       0       0       0       0
  4407 ;;      Totals:         2       0       0       0       0       0       0       0       0
  4408 ;;Total ram usage:        2 bytes
  4409 ;; Hardware stack levels used:    1
  4410 ;; Hardware stack levels required when called:    5
  4411 ;; This function calls:
  4412 ;;		_USBStdFeatureReqHandler
  4413 ;;		_USBStdGetDscHandler
  4414 ;;		_USBStdGetStatusHandler
  4415 ;;		_USBStdSetCfgHandler
  4416 ;;		_USER_USB_CALLBACK_EVENT_HANDLER
  4417 ;; This function is called by:
  4418 ;;		_USBCtrlTrfSetupHandler
  4419 ;; This function uses a non-reentrant model
  4420 ;;
  4421                           
  4422                           	psect	text22
  4423  001766                     __ptext22:
  4424                           	opt stack 0
  4425  001766                     _USBCheckStdRequest:
  4426                           	opt stack 17
  4427                           
  4428                           ;usb_device.c: 2691: if(SetupPkt.RequestType != (0x00>>5)) return;
  4429                           
  4430                           ;incstack = 0
  4431  001766  0104               	movlb	4	; () banked
  4432  001768  3920               	swapf	32,w,b	;volatile
  4433  00176A  32E8               	rrcf	wreg,f,c
  4434  00176C  0B03               	andlw	3
  4435  00176E  0900               	iorlw	0
  4436  001770  A4D8               	btfss	status,2,c
  4437  001772  D070               	goto	i2l553
  4438  001774  D04E               	goto	i2l4328
  4439  001776                     i2l555:
  4440                           
  4441                           ; BSR set to: 4
  4442                           ;usb_device.c: 2696: inPipes[0].info.bits.busy = 1;
  4443  001776  0100               	movlb	0	; () banked
  4444  001778  8F7D               	bsf	(_inPipes+3)& (0+255),7,b	;volatile
  4445                           
  4446                           ; BSR set to: 0
  4447                           ;usb_device.c: 2697: USBDeviceState = ADR_PENDING_STATE;
  4448  00177A  0E08               	movlw	8
  4449  00177C  0100               	movlb	0	; () banked
  4450  00177E  6F78               	movwf	_USBDeviceState& (0+255),b	;volatile
  4451                           
  4452                           ;usb_device.c: 2699: break;
  4453  001780  D069               	goto	i2l553
  4454  001782                     i2l4298:
  4455                           
  4456                           ;usb_device.c: 2701: USBStdGetDscHandler();
  4457  001782  EC05  F008         	call	_USBStdGetDscHandler	;wreg free
  4458                           
  4459                           ;usb_device.c: 2702: break;
  4460  001786  D066               	goto	i2l553
  4461  001788                     i2l4300:
  4462                           
  4463                           ;usb_device.c: 2704: USBStdSetCfgHandler();
  4464  001788  ECC2  F00A         	call	_USBStdSetCfgHandler	;wreg free
  4465                           
  4466                           ;usb_device.c: 2705: break;
  4467  00178C  D063               	goto	i2l553
  4468  00178E                     i2l4302:
  4469                           
  4470                           ;usb_device.c: 2707: inPipes[0].pSrc.bRam = (uint8_t*)&USBActiveConfiguration;
  4471  00178E  0E00               	movlw	high _USBActiveConfiguration	;volatile
  4472  001790  0100               	movlb	0	; () banked
  4473  001792  6F7B               	movwf	(_inPipes+1)& (0+255),b	;volatile
  4474  001794  0E4A               	movlw	low _USBActiveConfiguration	;volatile
  4475  001796  0100               	movlb	0	; () banked
  4476  001798  6F7A               	movwf	_inPipes& (0+255),b	;volatile
  4477  00179A  D015               	goto	L12
  4478  00179C                     i2l4310:
  4479                           
  4480                           ;usb_device.c: 2713: USBStdGetStatusHandler();
  4481  00179C  EC70  F00D         	call	_USBStdGetStatusHandler	;wreg free
  4482                           
  4483                           ;usb_device.c: 2714: break;
  4484  0017A0  D059               	goto	i2l553
  4485  0017A2                     i2l4312:
  4486                           
  4487                           ;usb_device.c: 2716: case 3:
  4488                           ;usb_device.c: 2717: USBStdFeatureReqHandler();
  4489  0017A2  EC73  F004         	call	_USBStdFeatureReqHandler	;wreg free
  4490                           
  4491                           ;usb_device.c: 2718: break;
  4492  0017A6  D056               	goto	i2l553
  4493  0017A8                     i2l4314:
  4494                           
  4495                           ;usb_device.c: 2720: inPipes[0].pSrc.bRam = (uint8_t*)&USBAlternateInterface[SetupPkt.bI
      +                          ntfID];
  4496  0017A8  0104               	movlb	4	; () banked
  4497  0017AA  5124               	movf	36,w,b	;volatile
  4498  0017AC  0D01               	mullw	1
  4499  0017AE  0E4B               	movlw	low _USBAlternateInterface	;volatile
  4500  0017B0  6E30               	movwf	??_USBCheckStdRequest& (0+255),c
  4501  0017B2  0E00               	movlw	high _USBAlternateInterface	;volatile
  4502  0017B4  6E31               	movwf	(??_USBCheckStdRequest+1)& (0+255),c
  4503  0017B6  50F3               	movf	prodl,w,c
  4504  0017B8  2630               	addwf	??_USBCheckStdRequest,f,c
  4505  0017BA  50F4               	movf	prodh,w,c
  4506  0017BC  2231               	addwfc	??_USBCheckStdRequest+1,f,c
  4507  0017BE  C030  F07A         	movff	??_USBCheckStdRequest,_inPipes	;volatile
  4508  0017C2  C031  F07B         	movff	??_USBCheckStdRequest+1,_inPipes+1	;volatile
  4509  0017C6                     L12:
  4510                           
  4511                           ; BSR set to: 4
  4512                           ;usb_device.c: 2721: inPipes[0].info.bits.ctrl_trf_mem = 0x01;
  4513  0017C6  0100               	movlb	0	; () banked
  4514  0017C8  817D               	bsf	(_inPipes+3)& (0+255),0,b	;volatile
  4515                           
  4516                           ; BSR set to: 0
  4517                           ;usb_device.c: 2722: inPipes[0].wCount.v[0] = 1;
  4518  0017CA  0E01               	movlw	1
  4519  0017CC  0100               	movlb	0	; () banked
  4520  0017CE  6F7E               	movwf	(_inPipes+4)& (0+255),b	;volatile
  4521                           
  4522                           ; BSR set to: 0
  4523                           ;usb_device.c: 2723: inPipes[0].info.bits.busy = 1;
  4524  0017D0  0100               	movlb	0	; () banked
  4525  0017D2  8F7D               	bsf	(_inPipes+3)& (0+255),7,b	;volatile
  4526                           
  4527                           ;usb_device.c: 2724: break;
  4528  0017D4  D03F               	goto	i2l553
  4529  0017D6                     i2l564:
  4530                           
  4531                           ; BSR set to: 4
  4532                           ;usb_device.c: 2726: inPipes[0].info.bits.busy = 1;
  4533  0017D6  0100               	movlb	0	; () banked
  4534  0017D8  8F7D               	bsf	(_inPipes+3)& (0+255),7,b	;volatile
  4535                           
  4536                           ; BSR set to: 0
  4537                           ;usb_device.c: 2727: USBAlternateInterface[SetupPkt.bIntfID] = SetupPkt.bAltID;
  4538  0017DA  0104               	movlb	4	; () banked
  4539  0017DC  5124               	movf	36,w,b	;volatile
  4540  0017DE  0D01               	mullw	1
  4541  0017E0  0E4B               	movlw	low _USBAlternateInterface	;volatile
  4542  0017E2  24F3               	addwf	prodl,w,c
  4543  0017E4  6ED9               	movwf	fsr2l,c
  4544  0017E6  0E00               	movlw	high _USBAlternateInterface	;volatile
  4545  0017E8  20F4               	addwfc	prodh,w,c
  4546  0017EA  6EDA               	movwf	fsr2h,c
  4547  0017EC  0104               	movlb	4	; () banked
  4548  0017EE  C422 FFDF          	movff	1058,indf2	;volatile
  4549                           
  4550                           ;usb_device.c: 2728: break;
  4551  0017F2  D030               	goto	i2l553
  4552  0017F4                     i2l4324:
  4553                           
  4554                           ; BSR set to: 4
  4555                           ;usb_device.c: 2730: USER_USB_CALLBACK_EVENT_HANDLER(EVENT_SET_DESCRIPTOR,0,0);
  4556  0017F4  0E00               	movlw	0
  4557  0017F6  6E21               	movwf	USER_USB_CALLBACK_EVENT_HANDLER@event+1,c
  4558  0017F8  0E02               	movlw	2
  4559  0017FA  6E20               	movwf	USER_USB_CALLBACK_EVENT_HANDLER@event,c
  4560  0017FC  0E00               	movlw	0
  4561  0017FE  6E23               	movwf	USER_USB_CALLBACK_EVENT_HANDLER@pdata+1,c
  4562  001800  0E00               	movlw	0
  4563  001802  6E22               	movwf	USER_USB_CALLBACK_EVENT_HANDLER@pdata,c
  4564  001804  0E00               	movlw	0
  4565  001806  6E25               	movwf	USER_USB_CALLBACK_EVENT_HANDLER@size+1,c
  4566  001808  0E00               	movlw	0
  4567  00180A  6E24               	movwf	USER_USB_CALLBACK_EVENT_HANDLER@size,c
  4568  00180C  ECAF  F00F         	call	_USER_USB_CALLBACK_EVENT_HANDLER	;wreg free
  4569                           
  4570                           ;usb_device.c: 2731: break;
  4571  001810  D021               	goto	i2l553
  4572  001812                     i2l4328:
  4573  001812  0104               	movlb	4	; () banked
  4574  001814  5121               	movf	33,w,b	;volatile
  4575                           
  4576                           ; Switch size 1, requested type "space"
  4577                           ; Number of cases is 11, Range of values is 0 to 12
  4578                           ; switch strategies available:
  4579                           ; Name         Instructions Cycles
  4580                           ; simple_byte           34    18 (average)
  4581                           ;	Chosen strategy is simple_byte
  4582  001816  0A00               	xorlw	0	; case 0
  4583  001818  B4D8               	btfsc	status,2,c
  4584  00181A  D7C0               	goto	i2l4310
  4585  00181C  0A01               	xorlw	1	; case 1
  4586  00181E  B4D8               	btfsc	status,2,c
  4587  001820  D7C0               	goto	i2l4312
  4588  001822  0A02               	xorlw	2	; case 3
  4589  001824  B4D8               	btfsc	status,2,c
  4590  001826  D7BD               	goto	i2l4312
  4591  001828  0A06               	xorlw	6	; case 5
  4592  00182A  B4D8               	btfsc	status,2,c
  4593  00182C  D7A4               	goto	i2l555
  4594  00182E  0A03               	xorlw	3	; case 6
  4595  001830  B4D8               	btfsc	status,2,c
  4596  001832  D7A7               	goto	i2l4298
  4597  001834  0A01               	xorlw	1	; case 7
  4598  001836  B4D8               	btfsc	status,2,c
  4599  001838  D7DD               	goto	i2l4324
  4600  00183A  0A0F               	xorlw	15	; case 8
  4601  00183C  B4D8               	btfsc	status,2,c
  4602  00183E  D7A7               	goto	i2l4302
  4603  001840  0A01               	xorlw	1	; case 9
  4604  001842  B4D8               	btfsc	status,2,c
  4605  001844  D7A1               	goto	i2l4300
  4606  001846  0A03               	xorlw	3	; case 10
  4607  001848  B4D8               	btfsc	status,2,c
  4608  00184A  D7AE               	goto	i2l4314
  4609  00184C  0A01               	xorlw	1	; case 11
  4610  00184E  B4D8               	btfsc	status,2,c
  4611  001850  D7C2               	goto	i2l564
  4612  001852  0A07               	xorlw	7	; case 12
  4613  001854                     i2l553:
  4614  001854  0012               	return	
  4615  001856                     __end_of_USBCheckStdRequest:
  4616                           	opt stack 0
  4617                           pclatu	equ	0xFFB
  4618                           pclath	equ	0xFFA
  4619                           tblptru	equ	0xFF8
  4620                           tblptrh	equ	0xFF7
  4621                           tblptrl	equ	0xFF6
  4622                           tablat	equ	0xFF5
  4623                           prodh	equ	0xFF4
  4624                           prodl	equ	0xFF3
  4625                           intcon	equ	0xFF2
  4626                           postinc0	equ	0xFEE
  4627                           fsr0h	equ	0xFEA
  4628                           fsr0l	equ	0xFE9
  4629                           wreg	equ	0xFE8
  4630                           indf1	equ	0xFE7
  4631                           fsr1h	equ	0xFE2
  4632                           fsr1l	equ	0xFE1
  4633                           bsr	equ	0xFE0
  4634                           indf2	equ	0xFDF
  4635                           postinc2	equ	0xFDE
  4636                           postdec2	equ	0xFDD
  4637                           plusw2	equ	0xFDB
  4638                           fsr2h	equ	0xFDA
  4639                           fsr2l	equ	0xFD9
  4640                           status	equ	0xFD8
  4641                           
  4642 ;; *************** function _USBStdSetCfgHandler *****************
  4643 ;; Defined at:
  4644 ;;		line 1968 in file "../src/usb/src/usb_device.c"
  4645 ;; Parameters:    Size  Location     Type
  4646 ;;		None
  4647 ;; Auto vars:     Size  Location     Type
  4648 ;;  i               1   39[COMRAM] unsigned char 
  4649 ;; Return value:  Size  Location     Type
  4650 ;;		None               void
  4651 ;; Registers used:
  4652 ;;		wreg, fsr2l, fsr2h, status,2, status,0, prodl, prodh, cstack
  4653 ;; Tracked objects:
  4654 ;;		On entry : 0/0
  4655 ;;		On exit  : 0/0
  4656 ;;		Unchanged: 0/0
  4657 ;; Data sizes:     COMRAM   BANK0   BANK1   BANK2   BANK3   BANK4   BANK5   BANK6   BANK7
  4658 ;;      Params:         0       0       0       0       0       0       0       0       0
  4659 ;;      Locals:         1       0       0       0       0       0       0       0       0
  4660 ;;      Temps:          0       0       0       0       0       0       0       0       0
  4661 ;;      Totals:         1       0       0       0       0       0       0       0       0
  4662 ;;Total ram usage:        1 bytes
  4663 ;; Hardware stack levels used:    1
  4664 ;; Hardware stack levels required when called:    4
  4665 ;; This function calls:
  4666 ;;		_USER_USB_CALLBACK_EVENT_HANDLER
  4667 ;;		i2_memset
  4668 ;; This function is called by:
  4669 ;;		_USBCheckStdRequest
  4670 ;; This function uses a non-reentrant model
  4671 ;;
  4672                           
  4673                           	psect	text23
  4674  001584                     __ptext23:
  4675                           	opt stack 0
  4676  001584                     _USBStdSetCfgHandler:
  4677                           	opt stack 17
  4678                           
  4679                           ;usb_device.c: 1970: uint8_t i;
  4680                           ;usb_device.c: 1973: inPipes[0].info.bits.busy = 1;
  4681                           
  4682                           ;incstack = 0
  4683  001584  0100               	movlb	0	; () banked
  4684  001586  8F7D               	bsf	(_inPipes+3)& (0+255),7,b	;volatile
  4685                           
  4686                           ; BSR set to: 0
  4687                           ;usb_device.c: 1976: memset((void*)&UEP1,0x00,(1));;
  4688  001588  0E0F               	movlw	15	;volatile
  4689  00158A  6E13               	movwf	i2memset@p1+1,c
  4690  00158C  0E71               	movlw	113	;volatile
  4691  00158E  6E12               	movwf	i2memset@p1,c
  4692  001590  0E00               	movlw	0
  4693  001592  6E15               	movwf	i2memset@c+1,c
  4694  001594  0E00               	movlw	0
  4695  001596  6E14               	movwf	i2memset@c,c
  4696  001598  0E00               	movlw	0
  4697  00159A  6E17               	movwf	i2memset@n+1,c
  4698  00159C  0E01               	movlw	1
  4699  00159E  6E16               	movwf	i2memset@n,c
  4700  0015A0  EC14  F011         	call	i2_memset	;wreg free
  4701                           
  4702                           ;usb_device.c: 1979: memset((void*)&BDT[0], 0x00, sizeof(BDT));
  4703  0015A4  0104               	movlb	4	; () banked
  4704  0015A6  0E04               	movlw	4	;volatile
  4705  0015A8  6E13               	movwf	i2memset@p1+1,c
  4706  0015AA  0104               	movlb	4	; () banked
  4707  0015AC  0E00               	movlw	0	;volatile
  4708  0015AE  6E12               	movwf	i2memset@p1,c
  4709  0015B0  0E00               	movlw	0
  4710  0015B2  6E15               	movwf	i2memset@c+1,c
  4711  0015B4  0E00               	movlw	0
  4712  0015B6  6E14               	movwf	i2memset@c,c
  4713  0015B8  0E00               	movlw	0
  4714  0015BA  6E17               	movwf	i2memset@n+1,c
  4715  0015BC  0E20               	movlw	32
  4716  0015BE  6E16               	movwf	i2memset@n,c
  4717  0015C0  EC14  F011         	call	i2_memset	;wreg free
  4718                           
  4719                           ;usb_device.c: 1982: UCONbits.PPBRST = 1;
  4720  0015C4  8C6D               	bsf	3949,6,c	;volatile
  4721                           
  4722                           ;usb_device.c: 1987: for(i = 0; i < (uint8_t)(1+1u); i++)
  4723  0015C6  0E00               	movlw	0
  4724  0015C8  6E28               	movwf	USBStdSetCfgHandler@i,c
  4725  0015CA  D019               	goto	L14
  4726  0015CC                     i2l4026:
  4727                           
  4728                           ;usb_device.c: 1988: {
  4729                           ;usb_device.c: 1989: ep_data_in[i].Val = 0u;
  4730  0015CC  5028               	movf	USBStdSetCfgHandler@i,w,c
  4731  0015CE  0D01               	mullw	1
  4732  0015D0  0100               	movlb	0	; () banked
  4733  0015D2  0E74               	movlw	low _ep_data_in	;volatile
  4734  0015D4  24F3               	addwf	prodl,w,c
  4735  0015D6  6ED9               	movwf	fsr2l,c
  4736  0015D8  0100               	movlb	0	; () banked
  4737  0015DA  0E00               	movlw	high _ep_data_in	;volatile
  4738  0015DC  20F4               	addwfc	prodh,w,c
  4739  0015DE  6EDA               	movwf	fsr2h,c
  4740  0015E0  0E00               	movlw	0
  4741  0015E2  6EDF               	movwf	indf2,c
  4742                           
  4743                           ;usb_device.c: 1990: ep_data_out[i].Val = 0u;
  4744  0015E4  5028               	movf	USBStdSetCfgHandler@i,w,c
  4745  0015E6  0D01               	mullw	1
  4746  0015E8  0100               	movlb	0	; () banked
  4747  0015EA  0E76               	movlw	low _ep_data_out	;volatile
  4748  0015EC  24F3               	addwf	prodl,w,c
  4749  0015EE  6ED9               	movwf	fsr2l,c
  4750  0015F0  0100               	movlb	0	; () banked
  4751  0015F2  0E00               	movlw	high _ep_data_out	;volatile
  4752  0015F4  20F4               	addwfc	prodh,w,c
  4753  0015F6  6EDA               	movwf	fsr2h,c
  4754  0015F8  0E00               	movlw	0
  4755  0015FA  6EDF               	movwf	indf2,c
  4756                           
  4757                           ; BSR set to: 0
  4758  0015FC  2A28               	incf	USBStdSetCfgHandler@i,f,c
  4759  0015FE                     L14:
  4760                           
  4761                           ; BSR set to: 0
  4762  0015FE  0E01               	movlw	1
  4763  001600  6428               	cpfsgt	USBStdSetCfgHandler@i,c
  4764  001602  D7E4               	goto	i2l4026
  4765                           
  4766                           ;usb_device.c: 1991: }
  4767                           ;usb_device.c: 1994: memset((void*)&USBAlternateInterface,0x00,1);
  4768                           
  4769                           ; BSR set to: 0
  4770  001604  0E00               	movlw	high _USBAlternateInterface	;volatile
  4771  001606  6E13               	movwf	i2memset@p1+1,c
  4772  001608  0E4B               	movlw	low _USBAlternateInterface	;volatile
  4773  00160A  6E12               	movwf	i2memset@p1,c
  4774  00160C  0E00               	movlw	0
  4775  00160E  6E15               	movwf	i2memset@c+1,c
  4776  001610  0E00               	movlw	0
  4777  001612  6E14               	movwf	i2memset@c,c
  4778  001614  0E00               	movlw	0
  4779  001616  6E17               	movwf	i2memset@n+1,c
  4780  001618  0E01               	movlw	1
  4781  00161A  6E16               	movwf	i2memset@n,c
  4782  00161C  EC14  F011         	call	i2_memset	;wreg free
  4783                           
  4784                           ;usb_device.c: 1997: UCONbits.PPBRST = 0;
  4785  001620  9C6D               	bcf	3949,6,c	;volatile
  4786                           
  4787                           ;usb_device.c: 1999: pBDTEntryIn[0] = (volatile BDT_ENTRY*)&BDT[2];
  4788  001622  0104               	movlb	4	; () banked
  4789  001624  0E04               	movlw	4	;volatile
  4790  001626  0100               	movlb	0	; () banked
  4791  001628  6F69               	movwf	(_pBDTEntryIn+1)& (0+255),b
  4792  00162A  0104               	movlb	4	; () banked
  4793  00162C  0E08               	movlw	8	;volatile
  4794  00162E  0100               	movlb	0	; () banked
  4795  001630  6F68               	movwf	_pBDTEntryIn& (0+255),b
  4796                           
  4797                           ; BSR set to: 0
  4798                           ;usb_device.c: 2002: pBDTEntryEP0OutCurrent = (volatile BDT_ENTRY*)&BDT[0];
  4799  001632  0104               	movlb	4	; () banked
  4800  001634  0E04               	movlw	4	;volatile
  4801  001636  6E39               	movwf	_pBDTEntryEP0OutCurrent+1,c
  4802  001638  0104               	movlb	4	; () banked
  4803  00163A  0E00               	movlw	0	;volatile
  4804  00163C  6E38               	movwf	_pBDTEntryEP0OutCurrent,c
  4805                           
  4806                           ; BSR set to: 4
  4807                           ;usb_device.c: 2003: pBDTEntryEP0OutNext = pBDTEntryEP0OutCurrent;
  4808  00163E  C039  F03B         	movff	_pBDTEntryEP0OutCurrent+1,_pBDTEntryEP0OutNext+1
  4809  001642  C038  F03A         	movff	_pBDTEntryEP0OutCurrent,_pBDTEntryEP0OutNext
  4810                           
  4811                           ; BSR set to: 4
  4812                           ;usb_device.c: 2006: USBActiveConfiguration = SetupPkt.bConfigurationValue;
  4813  001646  C422 F04A          	movff	1058,_USBActiveConfiguration	;volatile
  4814                           
  4815                           ; BSR set to: 4
  4816                           ;usb_device.c: 2009: if(USBActiveConfiguration == 0)
  4817  00164A  664A               	tstfsz	_USBActiveConfiguration,c	;volatile
  4818  00164C  D002               	goto	i2l4048
  4819                           
  4820                           ; BSR set to: 4
  4821                           ;usb_device.c: 2010: {
  4822                           ;usb_device.c: 2012: USBDeviceState = ADDRESS_STATE;
  4823  00164E  0E10               	movlw	16
  4824  001650  D00F               	goto	L13
  4825  001652                     i2l4048:
  4826                           
  4827                           ;usb_device.c: 2014: else
  4828                           ;usb_device.c: 2015: {
  4829                           ;usb_device.c: 2017: USER_USB_CALLBACK_EVENT_HANDLER(EVENT_CONFIGURED,(void*)&USBActiveC
      +                          onfiguration,1);
  4830  001652  0E00               	movlw	0
  4831  001654  6E21               	movwf	USER_USB_CALLBACK_EVENT_HANDLER@event+1,c
  4832  001656  0E01               	movlw	1
  4833  001658  6E20               	movwf	USER_USB_CALLBACK_EVENT_HANDLER@event,c
  4834  00165A  0E00               	movlw	high _USBActiveConfiguration	;volatile
  4835  00165C  6E23               	movwf	USER_USB_CALLBACK_EVENT_HANDLER@pdata+1,c
  4836  00165E  0E4A               	movlw	low _USBActiveConfiguration	;volatile
  4837  001660  6E22               	movwf	USER_USB_CALLBACK_EVENT_HANDLER@pdata,c
  4838  001662  0E00               	movlw	0
  4839  001664  6E25               	movwf	USER_USB_CALLBACK_EVENT_HANDLER@size+1,c
  4840  001666  0E01               	movlw	1
  4841  001668  6E24               	movwf	USER_USB_CALLBACK_EVENT_HANDLER@size,c
  4842  00166A  ECAF  F00F         	call	_USER_USB_CALLBACK_EVENT_HANDLER	;wreg free
  4843                           
  4844                           ;usb_device.c: 2022: USBDeviceState = CONFIGURED_STATE;
  4845  00166E  0E20               	movlw	32
  4846  001670                     L13:
  4847  001670  0100               	movlb	0	; () banked
  4848  001672  6F78               	movwf	_USBDeviceState& (0+255),b	;volatile
  4849                           
  4850                           ; BSR set to: 0
  4851                           
  4852                           ; BSR set to: 0
  4853  001674  0012               	return	
  4854  001676                     __end_of_USBStdSetCfgHandler:
  4855                           	opt stack 0
  4856                           pclatu	equ	0xFFB
  4857                           pclath	equ	0xFFA
  4858                           tblptru	equ	0xFF8
  4859                           tblptrh	equ	0xFF7
  4860                           tblptrl	equ	0xFF6
  4861                           tablat	equ	0xFF5
  4862                           prodh	equ	0xFF4
  4863                           prodl	equ	0xFF3
  4864                           intcon	equ	0xFF2
  4865                           postinc0	equ	0xFEE
  4866                           fsr0h	equ	0xFEA
  4867                           fsr0l	equ	0xFE9
  4868                           wreg	equ	0xFE8
  4869                           indf1	equ	0xFE7
  4870                           fsr1h	equ	0xFE2
  4871                           fsr1l	equ	0xFE1
  4872                           bsr	equ	0xFE0
  4873                           indf2	equ	0xFDF
  4874                           postinc2	equ	0xFDE
  4875                           postdec2	equ	0xFDD
  4876                           plusw2	equ	0xFDB
  4877                           fsr2h	equ	0xFDA
  4878                           fsr2l	equ	0xFD9
  4879                           status	equ	0xFD8
  4880                           
  4881 ;; *************** function i2_memset *****************
  4882 ;; Defined at:
  4883 ;;		line 8 in file "C:\Program Files (x86)\Microchip\xc8\v1.33\sources\common\memset.c"
  4884 ;; Parameters:    Size  Location     Type
  4885 ;;  p1              2   17[COMRAM] PTR void 
  4886 ;;		 -> USBAlternateInterface(1), BDT(32), UEP1(1), ToSendDataBuffer(64), 
  4887 ;;  c               2   19[COMRAM] int 
  4888 ;;  n               2   21[COMRAM] unsigned int 
  4889 ;; Auto vars:     Size  Location     Type
  4890 ;;  memset          2   23[COMRAM] PTR unsigned char 
  4891 ;;		 -> USBAlternateInterface(1), BDT(32), UEP1(1), ToSendDataBuffer(64), 
  4892 ;; Return value:  Size  Location     Type
  4893 ;;                  2   17[COMRAM] PTR void 
  4894 ;; Registers used:
  4895 ;;		wreg, fsr2l, fsr2h, status,2, status,0
  4896 ;; Tracked objects:
  4897 ;;		On entry : 0/0
  4898 ;;		On exit  : 0/0
  4899 ;;		Unchanged: 0/0
  4900 ;; Data sizes:     COMRAM   BANK0   BANK1   BANK2   BANK3   BANK4   BANK5   BANK6   BANK7
  4901 ;;      Params:         6       0       0       0       0       0       0       0       0
  4902 ;;      Locals:         2       0       0       0       0       0       0       0       0
  4903 ;;      Temps:          0       0       0       0       0       0       0       0       0
  4904 ;;      Totals:         8       0       0       0       0       0       0       0       0
  4905 ;;Total ram usage:        8 bytes
  4906 ;; Hardware stack levels used:    1
  4907 ;; This function calls:
  4908 ;;		Nothing
  4909 ;; This function is called by:
  4910 ;;		_USBStdSetCfgHandler
  4911 ;;		i2_USBDeviceInit
  4912 ;; This function uses a non-reentrant model
  4913 ;;
  4914                           
  4915                           	psect	text24
  4916  002228                     __ptext24:
  4917                           	opt stack 0
  4918  002228                     i2_memset:
  4919                           	opt stack 23
  4920                           
  4921                           ; BSR set to: 0
  4922                           ;incstack = 0
  4923  002228  C013  F019         	movff	i2memset@p1+1,i2memset@p+1
  4924  00222C  C012  F018         	movff	i2memset@p1,i2memset@p
  4925  002230  D008               	goto	i2l3954
  4926  002232                     i2l3950:
  4927  002232  C018  FFD9         	movff	i2memset@p,fsr2l
  4928  002236  C019  FFDA         	movff	i2memset@p+1,fsr2h
  4929  00223A  C014  FFDF         	movff	i2memset@c,indf2
  4930  00223E  4A18               	infsnz	i2memset@p,f,c
  4931  002240  2A19               	incf	i2memset@p+1,f,c
  4932  002242                     i2l3954:
  4933  002242  0616               	decf	i2memset@n,f,c
  4934  002244  A0D8               	btfss	status,0,c
  4935  002246  0617               	decf	i2memset@n+1,f,c
  4936  002248  2816               	incf	i2memset@n& (0+255),w,c
  4937  00224A  B4D8               	btfsc	status,2,c
  4938  00224C  2817               	incf	(i2memset@n+1)& (0+255),w,c
  4939  00224E  B4D8               	btfsc	status,2,c
  4940                           
  4941                           ;	Return value of i2_memset is never used
  4942  002250  0012               	return	
  4943  002252  D7EF               	goto	i2l3950
  4944  002254                     __end_ofi2_memset:
  4945                           	opt stack 0
  4946                           pclatu	equ	0xFFB
  4947                           pclath	equ	0xFFA
  4948                           tblptru	equ	0xFF8
  4949                           tblptrh	equ	0xFF7
  4950                           tblptrl	equ	0xFF6
  4951                           tablat	equ	0xFF5
  4952                           prodh	equ	0xFF4
  4953                           prodl	equ	0xFF3
  4954                           intcon	equ	0xFF2
  4955                           postinc0	equ	0xFEE
  4956                           fsr0h	equ	0xFEA
  4957                           fsr0l	equ	0xFE9
  4958                           wreg	equ	0xFE8
  4959                           indf1	equ	0xFE7
  4960                           fsr1h	equ	0xFE2
  4961                           fsr1l	equ	0xFE1
  4962                           bsr	equ	0xFE0
  4963                           indf2	equ	0xFDF
  4964                           postinc2	equ	0xFDE
  4965                           postdec2	equ	0xFDD
  4966                           plusw2	equ	0xFDB
  4967                           fsr2h	equ	0xFDA
  4968                           fsr2l	equ	0xFD9
  4969                           status	equ	0xFD8
  4970                           
  4971 ;; *************** function _USBStdGetStatusHandler *****************
  4972 ;; Defined at:
  4973 ;;		line 2129 in file "../src/usb/src/usb_device.c"
  4974 ;; Parameters:    Size  Location     Type
  4975 ;;		None
  4976 ;; Auto vars:     Size  Location     Type
  4977 ;;  p               2   18[COMRAM] PTR struct __BDT
  4978 ;;		 -> BDT(32), NULL(0), 
  4979 ;; Return value:  Size  Location     Type
  4980 ;;		None               void
  4981 ;; Registers used:
  4982 ;;		wreg, fsr2l, fsr2h, status,2, status,0, prodl, prodh
  4983 ;; Tracked objects:
  4984 ;;		On entry : 0/0
  4985 ;;		On exit  : 0/0
  4986 ;;		Unchanged: 0/0
  4987 ;; Data sizes:     COMRAM   BANK0   BANK1   BANK2   BANK3   BANK4   BANK5   BANK6   BANK7
  4988 ;;      Params:         0       0       0       0       0       0       0       0       0
  4989 ;;      Locals:         2       0       0       0       0       0       0       0       0
  4990 ;;      Temps:          1       0       0       0       0       0       0       0       0
  4991 ;;      Totals:         3       0       0       0       0       0       0       0       0
  4992 ;;Total ram usage:        3 bytes
  4993 ;; Hardware stack levels used:    1
  4994 ;; This function calls:
  4995 ;;		Nothing
  4996 ;; This function is called by:
  4997 ;;		_USBCheckStdRequest
  4998 ;; This function uses a non-reentrant model
  4999 ;;
  5000                           
  5001                           	psect	text25
  5002  001AE0                     __ptext25:
  5003                           	opt stack 0
  5004  001AE0                     _USBStdGetStatusHandler:
  5005                           	opt stack 21
  5006                           
  5007                           ;usb_device.c: 2131: CtrlTrfData[0] = 0;
  5008                           
  5009                           ;incstack = 0
  5010  001AE0  0E00               	movlw	0
  5011  001AE2  0104               	movlb	4	; () banked
  5012  001AE4  6F28               	movwf	40,b	;volatile
  5013                           
  5014                           ;usb_device.c: 2132: CtrlTrfData[1] = 0;
  5015  001AE6  0E00               	movlw	0
  5016  001AE8  0104               	movlb	4	; () banked
  5017  001AEA  6F29               	movwf	41,b	;volatile
  5018                           
  5019                           ;usb_device.c: 2134: switch(SetupPkt.Recipient)
  5020  001AEC  D03F               	goto	i2l4102
  5021  001AEE                     i2l491:
  5022                           
  5023                           ; BSR set to: 4
  5024                           ;usb_device.c: 2137: inPipes[0].info.bits.busy = 1;
  5025  001AEE  0100               	movlb	0	; () banked
  5026  001AF0  8F7D               	bsf	(_inPipes+3)& (0+255),7,b	;volatile
  5027                           
  5028                           ;usb_device.c: 2145: }
  5029                           ;usb_device.c: 2147: if(RemoteWakeup == 1)
  5030                           
  5031                           ; BSR set to: 4
  5032                           
  5033                           ; BSR set to: 0
  5034                           ;usb_device.c: 2143: {
  5035                           ;usb_device.c: 2144: CtrlTrfData[0]|=0x01;
  5036                           
  5037                           ;usb_device.c: 2142: if(0 == 1)
  5038  001AF2  043F               	decf	_RemoteWakeup,w,c	;volatile
  5039  001AF4  A4D8               	btfss	status,2,c
  5040  001AF6  D046               	goto	i2l494
  5041                           
  5042                           ;usb_device.c: 2148: {
  5043                           ;usb_device.c: 2149: CtrlTrfData[0]|=0x02;
  5044  001AF8  0104               	movlb	4	; () banked
  5045  001AFA  8328               	bsf	40,1,b	;volatile
  5046  001AFC  D043               	goto	i2l494
  5047  001AFE                     i2l495:
  5048                           
  5049                           ; BSR set to: 4
  5050                           ;usb_device.c: 2153: inPipes[0].info.bits.busy = 1;
  5051  001AFE  0100               	movlb	0	; () banked
  5052  001B00  8F7D               	bsf	(_inPipes+3)& (0+255),7,b	;volatile
  5053                           
  5054                           ;usb_device.c: 2154: break;
  5055  001B02  D040               	goto	i2l494
  5056  001B04                     i2l496:
  5057                           
  5058                           ; BSR set to: 4
  5059                           ;usb_device.c: 2156: inPipes[0].info.bits.busy = 1;
  5060  001B04  0100               	movlb	0	; () banked
  5061  001B06  8F7D               	bsf	(_inPipes+3)& (0+255),7,b	;volatile
  5062                           
  5063                           ;usb_device.c: 2160: {
  5064                           ;usb_device.c: 2161: BDT_ENTRY *p;
  5065                           ;usb_device.c: 2163: if(SetupPkt.EPDir == 0)
  5066  001B08  0104               	movlb	4	; () banked
  5067  001B0A  BF24               	btfsc	36,7,b	;volatile
  5068  001B0C  D00D               	goto	i2l4092
  5069                           
  5070                           ; BSR set to: 4
  5071                           ;usb_device.c: 2164: {
  5072                           ;usb_device.c: 2165: p = (BDT_ENTRY*)pBDTEntryOut[SetupPkt.EPNum];
  5073  001B0E  0104               	movlb	4	; () banked
  5074  001B10  5124               	movf	36,w,b	;volatile
  5075  001B12  0B0F               	andlw	15
  5076  001B14  6E12               	movwf	??_USBStdGetStatusHandler& (0+255),c
  5077  001B16  5012               	movf	??_USBStdGetStatusHandler,w,c
  5078  001B18  0D02               	mullw	2
  5079  001B1A  0100               	movlb	0	; () banked
  5080  001B1C  0E6C               	movlw	low _pBDTEntryOut
  5081  001B1E  24F3               	addwf	prodl,w,c
  5082  001B20  6ED9               	movwf	fsr2l,c
  5083  001B22  0100               	movlb	0	; () banked
  5084  001B24  0E00               	movlw	high _pBDTEntryOut
  5085  001B26  D00C               	goto	L15
  5086  001B28                     i2l4092:
  5087                           
  5088                           ;usb_device.c: 2167: else
  5089                           ;usb_device.c: 2168: {
  5090                           ;usb_device.c: 2169: p = (BDT_ENTRY*)pBDTEntryIn[SetupPkt.EPNum];
  5091  001B28  0104               	movlb	4	; () banked
  5092  001B2A  5124               	movf	36,w,b	;volatile
  5093  001B2C  0B0F               	andlw	15
  5094  001B2E  6E12               	movwf	??_USBStdGetStatusHandler& (0+255),c
  5095  001B30  5012               	movf	??_USBStdGetStatusHandler,w,c
  5096  001B32  0D02               	mullw	2
  5097  001B34  0100               	movlb	0	; () banked
  5098  001B36  0E68               	movlw	low _pBDTEntryIn
  5099  001B38  24F3               	addwf	prodl,w,c
  5100  001B3A  6ED9               	movwf	fsr2l,c
  5101  001B3C  0100               	movlb	0	; () banked
  5102  001B3E  0E00               	movlw	high _pBDTEntryIn
  5103  001B40                     L15:
  5104  001B40  20F4               	addwfc	prodh,w,c
  5105  001B42  6EDA               	movwf	fsr2h,c
  5106  001B44  CFDE F013          	movff	postinc2,USBStdGetStatusHandler@p
  5107  001B48  CFDD F014          	movff	postdec2,USBStdGetStatusHandler@p+1
  5108                           
  5109                           ; BSR set to: 0
  5110                           ;usb_device.c: 2170: }
  5111                           ;usb_device.c: 2172: if((p->STAT.UOWN == 1) && (p->STAT.BSTALL == 1))
  5112                           
  5113                           ; BSR set to: 0
  5114  001B4C  C013  FFD9         	movff	USBStdGetStatusHandler@p,fsr2l
  5115  001B50  C014  FFDA         	movff	USBStdGetStatusHandler@p+1,fsr2h
  5116  001B54  AEDF               	btfss	indf2,7,c
  5117  001B56  D016               	goto	i2l494
  5118                           
  5119                           ; BSR set to: 0
  5120  001B58  C013  FFD9         	movff	USBStdGetStatusHandler@p,fsr2l
  5121  001B5C  C014  FFDA         	movff	USBStdGetStatusHandler@p+1,fsr2h
  5122  001B60  A4DF               	btfss	indf2,2,c
  5123  001B62  D010               	goto	i2l494
  5124                           
  5125                           ; BSR set to: 0
  5126                           ;usb_device.c: 2173: CtrlTrfData[0]=0x01;
  5127  001B64  0E01               	movlw	1
  5128  001B66  0104               	movlb	4	; () banked
  5129  001B68  6F28               	movwf	40,b	;volatile
  5130  001B6A  D00C               	goto	i2l494
  5131  001B6C                     i2l4102:
  5132                           
  5133                           ; BSR set to: 4
  5134  001B6C  0104               	movlb	4	; () banked
  5135  001B6E  5120               	movf	32,w,b	;volatile
  5136  001B70  0B1F               	andlw	31
  5137                           
  5138                           ; Switch size 1, requested type "space"
  5139                           ; Number of cases is 3, Range of values is 0 to 2
  5140                           ; switch strategies available:
  5141                           ; Name         Instructions Cycles
  5142                           ; simple_byte           10     6 (average)
  5143                           ;	Chosen strategy is simple_byte
  5144  001B72  0A00               	xorlw	0	; case 0
  5145  001B74  B4D8               	btfsc	status,2,c
  5146  001B76  D7BB               	goto	i2l491
  5147  001B78  0A01               	xorlw	1	; case 1
  5148  001B7A  B4D8               	btfsc	status,2,c
  5149  001B7C  D7C0               	goto	i2l495
  5150  001B7E  0A03               	xorlw	3	; case 2
  5151  001B80  B4D8               	btfsc	status,2,c
  5152  001B82  D7C0               	goto	i2l496
  5153  001B84                     i2l494:
  5154                           
  5155                           ;usb_device.c: 2178: if(inPipes[0].info.bits.busy == 1)
  5156  001B84  0100               	movlb	0	; () banked
  5157  001B86  AF7D               	btfss	(_inPipes+3)& (0+255),7,b	;volatile
  5158  001B88  D00D               	goto	i2l501
  5159                           
  5160                           ; BSR set to: 0
  5161                           ;usb_device.c: 2179: {
  5162                           ;usb_device.c: 2180: inPipes[0].pSrc.bRam = (uint8_t*)&CtrlTrfData;
  5163  001B8A  0104               	movlb	4	; () banked
  5164  001B8C  0E04               	movlw	4	;volatile
  5165  001B8E  0100               	movlb	0	; () banked
  5166  001B90  6F7B               	movwf	(_inPipes+1)& (0+255),b	;volatile
  5167  001B92  0104               	movlb	4	; () banked
  5168  001B94  0E28               	movlw	40	;volatile
  5169  001B96  0100               	movlb	0	; () banked
  5170  001B98  6F7A               	movwf	_inPipes& (0+255),b	;volatile
  5171                           
  5172                           ; BSR set to: 0
  5173                           ;usb_device.c: 2181: inPipes[0].info.bits.ctrl_trf_mem = 0x01;
  5174  001B9A  0100               	movlb	0	; () banked
  5175  001B9C  817D               	bsf	(_inPipes+3)& (0+255),0,b	;volatile
  5176                           
  5177                           ; BSR set to: 0
  5178                           ;usb_device.c: 2182: inPipes[0].wCount.v[0] = 2;
  5179  001B9E  0E02               	movlw	2
  5180  001BA0  0100               	movlb	0	; () banked
  5181  001BA2  6F7E               	movwf	(_inPipes+4)& (0+255),b	;volatile
  5182  001BA4                     i2l501:
  5183                           
  5184                           ; BSR set to: 0
  5185  001BA4  0012               	return	
  5186  001BA6                     __end_of_USBStdGetStatusHandler:
  5187                           	opt stack 0
  5188                           pclatu	equ	0xFFB
  5189                           pclath	equ	0xFFA
  5190                           tblptru	equ	0xFF8
  5191                           tblptrh	equ	0xFF7
  5192                           tblptrl	equ	0xFF6
  5193                           tablat	equ	0xFF5
  5194                           prodh	equ	0xFF4
  5195                           prodl	equ	0xFF3
  5196                           intcon	equ	0xFF2
  5197                           postinc0	equ	0xFEE
  5198                           fsr0h	equ	0xFEA
  5199                           fsr0l	equ	0xFE9
  5200                           wreg	equ	0xFE8
  5201                           indf1	equ	0xFE7
  5202                           fsr1h	equ	0xFE2
  5203                           fsr1l	equ	0xFE1
  5204                           bsr	equ	0xFE0
  5205                           indf2	equ	0xFDF
  5206                           postinc2	equ	0xFDE
  5207                           postdec2	equ	0xFDD
  5208                           plusw2	equ	0xFDB
  5209                           fsr2h	equ	0xFDA
  5210                           fsr2l	equ	0xFD9
  5211                           status	equ	0xFD8
  5212                           
  5213 ;; *************** function _USBStdGetDscHandler *****************
  5214 ;; Defined at:
  5215 ;;		line 2043 in file "../src/usb/src/usb_device.c"
  5216 ;; Parameters:    Size  Location     Type
  5217 ;;		None
  5218 ;; Auto vars:     Size  Location     Type
  5219 ;;		None
  5220 ;; Return value:  Size  Location     Type
  5221 ;;		None               void
  5222 ;; Registers used:
  5223 ;;		wreg, fsr1l, fsr1h, status,2, status,0, tblptrl, tblptrh, tblptru, prodl, prodh
  5224 ;; Tracked objects:
  5225 ;;		On entry : 0/0
  5226 ;;		On exit  : 0/0
  5227 ;;		Unchanged: 0/0
  5228 ;; Data sizes:     COMRAM   BANK0   BANK1   BANK2   BANK3   BANK4   BANK5   BANK6   BANK7
  5229 ;;      Params:         0       0       0       0       0       0       0       0       0
  5230 ;;      Locals:         0       0       0       0       0       0       0       0       0
  5231 ;;      Temps:          2       0       0       0       0       0       0       0       0
  5232 ;;      Totals:         2       0       0       0       0       0       0       0       0
  5233 ;;Total ram usage:        2 bytes
  5234 ;; Hardware stack levels used:    1
  5235 ;; This function calls:
  5236 ;;		Nothing
  5237 ;; This function is called by:
  5238 ;;		_USBCheckStdRequest
  5239 ;; This function uses a non-reentrant model
  5240 ;;
  5241                           
  5242                           	psect	text26
  5243  00100A                     __ptext26:
  5244                           	opt stack 0
  5245  00100A                     _USBStdGetDscHandler:
  5246                           	opt stack 21
  5247                           
  5248                           ;usb_device.c: 2045: if(SetupPkt.bmRequestType == 0x80)
  5249                           
  5250                           ; BSR set to: 0
  5251                           ;incstack = 0
  5252  00100A  0104               	movlb	4	; () banked
  5253  00100C  5120               	movf	32,w,b	;volatile
  5254  00100E  0A80               	xorlw	128
  5255  001010  A4D8               	btfss	status,2,c
  5256  001012  D099               	goto	i2l487
  5257                           
  5258                           ; BSR set to: 4
  5259                           ;usb_device.c: 2046: {
  5260                           ;usb_device.c: 2047: inPipes[0].info.Val = 0x00 | 0x80 | 0x40;
  5261  001014  0EC0               	movlw	192
  5262  001016  0100               	movlb	0	; () banked
  5263  001018  6F7D               	movwf	(_inPipes+3)& (0+255),b	;volatile
  5264                           
  5265                           ;usb_device.c: 2049: switch(SetupPkt.bDescriptorType)
  5266  00101A  D089               	goto	i2l4080
  5267  00101C                     i2l4056:
  5268                           
  5269                           ;usb_device.c: 2055: inPipes[0].pSrc.bRom = (const uint8_t*)&device_dsc;
  5270  00101C  0E08               	movlw	high _device_dsc
  5271  00101E  0100               	movlb	0	; () banked
  5272  001020  6F7B               	movwf	(_inPipes+1)& (0+255),b	;volatile
  5273  001022  0ECF               	movlw	low _device_dsc
  5274  001024  0100               	movlb	0	; () banked
  5275  001026  6F7A               	movwf	_inPipes& (0+255),b	;volatile
  5276                           
  5277                           ; BSR set to: 0
  5278                           ;usb_device.c: 2057: inPipes[0].wCount.Val = sizeof(device_dsc);
  5279  001028  0E00               	movlw	0
  5280  00102A  0100               	movlb	0	; () banked
  5281  00102C  6F7F               	movwf	(_inPipes+5)& (0+255),b	;volatile
  5282  00102E  0E12               	movlw	18
  5283  001030  0100               	movlb	0	; () banked
  5284  001032  6F7E               	movwf	(_inPipes+4)& (0+255),b	;volatile
  5285                           
  5286                           ;usb_device.c: 2058: break;
  5287  001034  D088               	goto	i2l487
  5288  001036                     i2l480:
  5289                           
  5290                           ; BSR set to: 4
  5291                           ;usb_device.c: 2063: if(SetupPkt.bDscIndex < 1)
  5292  001036  0104               	movlb	4	; () banked
  5293  001038  6722               	tstfsz	34,b	;volatile
  5294  00103A  D075               	goto	i2l4076
  5295                           
  5296                           ; BSR set to: 4
  5297                           ;usb_device.c: 2064: {
  5298                           ;usb_device.c: 2068: inPipes[0].pSrc.bRom = *(USB_CD_Ptr+SetupPkt.bDscIndex);
  5299  00103C  0104               	movlb	4	; () banked
  5300  00103E  5122               	movf	34,w,b	;volatile
  5301  001040  0D02               	mullw	2
  5302  001042  0E07               	movlw	low _USB_CD_Ptr
  5303  001044  24F3               	addwf	prodl,w,c
  5304  001046  6EF6               	movwf	tblptrl,c
  5305  001048  0E08               	movlw	high _USB_CD_Ptr
  5306  00104A  20F4               	addwfc	prodh,w,c
  5307  00104C  6EF7               	movwf	tblptrh,c
  5308  00104E                     	if	0	;There are less than 3 active tblptr bytes
  5309  00104E                     	endif
  5310  00104E  0009               	tblrd		*+
  5311  001050  0100               	movlb	0	; () banked
  5312  001052  CFF5 F07A          	movff	tablat,_inPipes	;volatile
  5313  001056  000A               	tblrd		*-
  5314  001058  0100               	movlb	0	; () banked
  5315  00105A  CFF5 F07B          	movff	tablat,_inPipes+1	;volatile
  5316                           
  5317                           ; BSR set to: 0
  5318                           ;usb_device.c: 2074: inPipes[0].wCount.byte.LB = *(inPipes[0].pSrc.bRom+2);
  5319  00105E  0E02               	movlw	2
  5320  001060  0100               	movlb	0	; () banked
  5321  001062  257A               	addwf	_inPipes& (0+255),w,b	;volatile
  5322  001064  6E12               	movwf	??_USBStdGetDscHandler& (0+255),c
  5323  001066  0E00               	movlw	0
  5324  001068  0100               	movlb	0	; () banked
  5325  00106A  217B               	addwfc	(_inPipes+1)& (0+255),w,b	;volatile
  5326  00106C  6E13               	movwf	(??_USBStdGetDscHandler+1)& (0+255),c
  5327  00106E  C012  FFF6         	movff	??_USBStdGetDscHandler,tblptrl
  5328  001072  C013  FFF7         	movff	??_USBStdGetDscHandler+1,tblptrh
  5329  001076  6AF8               	clrf	tblptru,c
  5330  001078  0E07               	movlw	(high __ramtop+-1)
  5331  00107A  64F7               	cpfsgt	tblptrh,c
  5332  00107C  D003               	bra	i2u344_47
  5333  00107E  0008               	tblrd		*
  5334  001080  50F5               	movf	tablat,w,c
  5335  001082  D005               	bra	i2u344_40
  5336  001084                     i2u344_47:
  5337  001084  CFF6 FFE1          	movff	tblptrl,fsr1l
  5338  001088  CFF7 FFE2          	movff	tblptrh,fsr1h
  5339  00108C  50E7               	movf	indf1,w,c
  5340  00108E                     i2u344_40:
  5341  00108E  0100               	movlb	0	; () banked
  5342  001090  6F7E               	movwf	(_inPipes+4)& (0+255),b	;volatile
  5343                           
  5344                           ; BSR set to: 0
  5345                           ;usb_device.c: 2075: inPipes[0].wCount.byte.HB = *(inPipes[0].pSrc.bRom+3);
  5346  001092  0E03               	movlw	3
  5347  001094  0100               	movlb	0	; () banked
  5348  001096  257A               	addwf	_inPipes& (0+255),w,b	;volatile
  5349  001098  6E12               	movwf	??_USBStdGetDscHandler& (0+255),c
  5350  00109A  0E00               	movlw	0
  5351  00109C  0100               	movlb	0	; () banked
  5352  00109E  217B               	addwfc	(_inPipes+1)& (0+255),w,b	;volatile
  5353  0010A0  6E13               	movwf	(??_USBStdGetDscHandler+1)& (0+255),c
  5354  0010A2  C012  FFF6         	movff	??_USBStdGetDscHandler,tblptrl
  5355  0010A6  C013  FFF7         	movff	??_USBStdGetDscHandler+1,tblptrh
  5356  0010AA  6AF8               	clrf	tblptru,c
  5357  0010AC  0E07               	movlw	(high __ramtop+-1)
  5358  0010AE  64F7               	cpfsgt	tblptrh,c
  5359  0010B0  D003               	bra	i2u345_47
  5360  0010B2  0008               	tblrd		*
  5361  0010B4  50F5               	movf	tablat,w,c
  5362  0010B6  D005               	bra	i2u345_40
  5363  0010B8                     i2u345_47:
  5364  0010B8  CFF6 FFE1          	movff	tblptrl,fsr1l
  5365  0010BC  CFF7 FFE2          	movff	tblptrh,fsr1h
  5366  0010C0  50E7               	movf	indf1,w,c
  5367  0010C2                     i2u345_40:
  5368  0010C2  0100               	movlb	0	; () banked
  5369  0010C4  6F7F               	movwf	(_inPipes+5)& (0+255),b	;volatile
  5370                           
  5371                           ;usb_device.c: 2076: }
  5372  0010C6  D03F               	goto	i2l487
  5373  0010C8                     i2l4068:
  5374                           
  5375                           ;usb_device.c: 2086: if(SetupPkt.bDscIndex<3)
  5376  0010C8  0E03               	movlw	3
  5377  0010CA  0104               	movlb	4	; () banked
  5378  0010CC  5D22               	subwf	34,w,b	;volatile
  5379  0010CE  B0D8               	btfsc	status,0,c
  5380  0010D0  D02A               	goto	i2l4076
  5381                           
  5382                           ; BSR set to: 4
  5383                           ;usb_device.c: 2087: {
  5384                           ;usb_device.c: 2089: inPipes[0].pSrc.bRom = *(USB_SD_Ptr+SetupPkt.bDscIndex);
  5385  0010D2  0104               	movlb	4	; () banked
  5386  0010D4  5122               	movf	34,w,b	;volatile
  5387  0010D6  0D02               	mullw	2
  5388  0010D8  0E01               	movlw	low _USB_SD_Ptr
  5389  0010DA  24F3               	addwf	prodl,w,c
  5390  0010DC  6EF6               	movwf	tblptrl,c
  5391  0010DE  0E08               	movlw	high _USB_SD_Ptr
  5392  0010E0  20F4               	addwfc	prodh,w,c
  5393  0010E2  6EF7               	movwf	tblptrh,c
  5394  0010E4                     	if	0	;There are less than 3 active tblptr bytes
  5395  0010E4                     	endif
  5396  0010E4  0009               	tblrd		*+
  5397  0010E6  0100               	movlb	0	; () banked
  5398  0010E8  CFF5 F07A          	movff	tablat,_inPipes	;volatile
  5399  0010EC  000A               	tblrd		*-
  5400  0010EE  0100               	movlb	0	; () banked
  5401  0010F0  CFF5 F07B          	movff	tablat,_inPipes+1	;volatile
  5402                           
  5403                           ; BSR set to: 0
  5404                           ;usb_device.c: 2091: inPipes[0].wCount.Val = *inPipes[0].pSrc.bRom;
  5405  0010F4  0100               	movlb	0	; () banked
  5406  0010F6  C07A  FFF6         	movff	_inPipes,tblptrl	;volatile
  5407  0010FA  0100               	movlb	0	; () banked
  5408  0010FC  C07B  FFF7         	movff	_inPipes+1,tblptrh	;volatile
  5409  001100  6AF8               	clrf	tblptru,c
  5410  001102  0E07               	movlw	(high __ramtop+-1)
  5411  001104  64F7               	cpfsgt	tblptrh,c
  5412  001106  D003               	bra	i2u347_47
  5413  001108  0008               	tblrd		*
  5414  00110A  50F5               	movf	tablat,w,c
  5415  00110C  D005               	bra	i2u347_40
  5416  00110E                     i2u347_47:
  5417  00110E  CFF6 FFE1          	movff	tblptrl,fsr1l
  5418  001112  CFF7 FFE2          	movff	tblptrh,fsr1h
  5419  001116  50E7               	movf	indf1,w,c
  5420  001118                     i2u347_40:
  5421  001118  6E12               	movwf	??_USBStdGetDscHandler& (0+255),c
  5422  00111A  5012               	movf	??_USBStdGetDscHandler,w,c
  5423  00111C  0100               	movlb	0	; () banked
  5424  00111E  6F7E               	movwf	(_inPipes+4)& (0+255),b	;volatile
  5425  001120  0100               	movlb	0	; () banked
  5426  001122  6B7F               	clrf	(_inPipes+5)& (0+255),b	;volatile
  5427                           
  5428                           ;usb_device.c: 2092: }
  5429  001124  D010               	goto	i2l487
  5430  001126                     i2l4076:
  5431                           
  5432                           ;usb_device.c: 2108: inPipes[0].info.Val = 0;
  5433  001126  0E00               	movlw	0
  5434  001128  0100               	movlb	0	; () banked
  5435  00112A  6F7D               	movwf	(_inPipes+3)& (0+255),b	;volatile
  5436                           
  5437                           ;usb_device.c: 2109: break;
  5438  00112C  D00C               	goto	i2l487
  5439  00112E                     i2l4080:
  5440                           
  5441                           ; BSR set to: 0
  5442  00112E  0104               	movlb	4	; () banked
  5443  001130  5123               	movf	35,w,b	;volatile
  5444                           
  5445                           ; Switch size 1, requested type "space"
  5446                           ; Number of cases is 3, Range of values is 1 to 3
  5447                           ; switch strategies available:
  5448                           ; Name         Instructions Cycles
  5449                           ; simple_byte           10     6 (average)
  5450                           ;	Chosen strategy is simple_byte
  5451  001132  0A01               	xorlw	1	; case 1
  5452  001134  B4D8               	btfsc	status,2,c
  5453  001136  D772               	goto	i2l4056
  5454  001138  0A03               	xorlw	3	; case 2
  5455  00113A  B4D8               	btfsc	status,2,c
  5456  00113C  D77C               	goto	i2l480
  5457  00113E  0A01               	xorlw	1	; case 3
  5458  001140  B4D8               	btfsc	status,2,c
  5459  001142  D7C2               	goto	i2l4068
  5460  001144  D7F0               	goto	i2l4076
  5461  001146                     i2l487:
  5462  001146  0012               	return	
  5463  001148                     __end_of_USBStdGetDscHandler:
  5464                           	opt stack 0
  5465                           pclatu	equ	0xFFB
  5466                           pclath	equ	0xFFA
  5467                           tblptru	equ	0xFF8
  5468                           tblptrh	equ	0xFF7
  5469                           tblptrl	equ	0xFF6
  5470                           tablat	equ	0xFF5
  5471                           prodh	equ	0xFF4
  5472                           prodl	equ	0xFF3
  5473                           intcon	equ	0xFF2
  5474                           postinc0	equ	0xFEE
  5475                           fsr0h	equ	0xFEA
  5476                           fsr0l	equ	0xFE9
  5477                           wreg	equ	0xFE8
  5478                           indf1	equ	0xFE7
  5479                           fsr1h	equ	0xFE2
  5480                           fsr1l	equ	0xFE1
  5481                           bsr	equ	0xFE0
  5482                           indf2	equ	0xFDF
  5483                           postinc2	equ	0xFDE
  5484                           postdec2	equ	0xFDD
  5485                           plusw2	equ	0xFDB
  5486                           fsr2h	equ	0xFDA
  5487                           fsr2l	equ	0xFD9
  5488                           status	equ	0xFD8
  5489                           
  5490 ;; *************** function _USBStdFeatureReqHandler *****************
  5491 ;; Defined at:
  5492 ;;		line 2757 in file "../src/usb/src/usb_device.c"
  5493 ;; Parameters:    Size  Location     Type
  5494 ;;		None
  5495 ;; Auto vars:     Size  Location     Type
  5496 ;;  p               2   45[COMRAM] PTR struct __BDT
  5497 ;;		 -> BDT(32), NULL(0), 
  5498 ;;  pUEP            2   42[COMRAM] PTR unsigned char 
  5499 ;;		 -> UEP0(1), 
  5500 ;;  current_ep_d    1   44[COMRAM] struct .
  5501 ;; Return value:  Size  Location     Type
  5502 ;;		None               void
  5503 ;; Registers used:
  5504 ;;		wreg, fsr2l, fsr2h, status,2, status,0, prodl, prodh, cstack
  5505 ;; Tracked objects:
  5506 ;;		On entry : 0/0
  5507 ;;		On exit  : 0/0
  5508 ;;		Unchanged: 0/0
  5509 ;; Data sizes:     COMRAM   BANK0   BANK1   BANK2   BANK3   BANK4   BANK5   BANK6   BANK7
  5510 ;;      Params:         0       0       0       0       0       0       0       0       0
  5511 ;;      Locals:         5       0       0       0       0       0       0       0       0
  5512 ;;      Temps:          3       0       0       0       0       0       0       0       0
  5513 ;;      Totals:         8       0       0       0       0       0       0       0       0
  5514 ;;Total ram usage:        8 bytes
  5515 ;; Hardware stack levels used:    1
  5516 ;; Hardware stack levels required when called:    4
  5517 ;; This function calls:
  5518 ;;		_USER_USB_CALLBACK_EVENT_HANDLER
  5519 ;; This function is called by:
  5520 ;;		_USBCheckStdRequest
  5521 ;; This function uses a non-reentrant model
  5522 ;;
  5523                           
  5524                           	psect	text27
  5525  0008E6                     __ptext27:
  5526                           	opt stack 0
  5527  0008E6                     _USBStdFeatureReqHandler:
  5528                           	opt stack 17
  5529                           
  5530                           ;usb_device.c: 2759: BDT_ENTRY *p;
  5531                           ;usb_device.c: 2760: EP_STATUS current_ep_data;
  5532                           ;usb_device.c: 2764: unsigned char* pUEP;
  5533                           ;usb_device.c: 2802: if((SetupPkt.bFeature == 1)&&
  5534                           ;usb_device.c: 2803: (SetupPkt.Recipient == (0x00)))
  5535                           
  5536                           ;incstack = 0
  5537  0008E6  0104               	movlb	4	; () banked
  5538  0008E8  0522               	decf	34,w,b	;volatile
  5539  0008EA  A4D8               	btfss	status,2,c
  5540  0008EC  D011               	goto	i2l4122
  5541                           
  5542                           ; BSR set to: 4
  5543  0008EE  0104               	movlb	4	; () banked
  5544  0008F0  5120               	movf	32,w,b	;volatile
  5545  0008F2  0B1F               	andlw	31
  5546  0008F4  0900               	iorlw	0
  5547  0008F6  A4D8               	btfss	status,2,c
  5548  0008F8  D00B               	goto	i2l4122
  5549                           
  5550                           ; BSR set to: 4
  5551                           ;usb_device.c: 2804: {
  5552                           ;usb_device.c: 2805: inPipes[0].info.bits.busy = 1;
  5553  0008FA  0100               	movlb	0	; () banked
  5554  0008FC  8F7D               	bsf	(_inPipes+3)& (0+255),7,b	;volatile
  5555                           
  5556                           ; BSR set to: 0
  5557                           ;usb_device.c: 2806: if(SetupPkt.bRequest == 3)
  5558  0008FE  0104               	movlb	4	; () banked
  5559  000900  5121               	movf	33,w,b	;volatile
  5560  000902  0A03               	xorlw	3
  5561  000904  A4D8               	btfss	status,2,c
  5562  000906  D002               	goto	i2l4120
  5563                           
  5564                           ; BSR set to: 4
  5565                           ;usb_device.c: 2807: RemoteWakeup = 1;
  5566  000908  0E01               	movlw	1
  5567  00090A  D001               	goto	L16
  5568  00090C                     i2l4120:
  5569                           
  5570                           ; BSR set to: 4
  5571                           ;usb_device.c: 2808: else
  5572                           ;usb_device.c: 2809: RemoteWakeup = 0;
  5573  00090C  0E00               	movlw	0
  5574  00090E                     L16:
  5575  00090E  6E3F               	movwf	_RemoteWakeup,c	;volatile
  5576  000910                     i2l4122:
  5577                           
  5578                           ; BSR set to: 4
  5579                           ;usb_device.c: 2810: }
  5580                           ;usb_device.c: 2813: if((SetupPkt.bFeature == 0)&&
  5581                           ;usb_device.c: 2814: (SetupPkt.Recipient == (0x02))&&
  5582                           ;usb_device.c: 2815: (SetupPkt.EPNum != 0) && (SetupPkt.EPNum <= 1)&&
  5583                           ;usb_device.c: 2816: (USBDeviceState == CONFIGURED_STATE))
  5584  000910  0104               	movlb	4	; () banked
  5585  000912  6722               	tstfsz	34,b	;volatile
  5586  000914  D144               	goto	i2l593
  5587                           
  5588                           ; BSR set to: 4
  5589  000916  0104               	movlb	4	; () banked
  5590  000918  5120               	movf	32,w,b	;volatile
  5591  00091A  0B1F               	andlw	31
  5592  00091C  0A02               	xorlw	2
  5593  00091E  A4D8               	btfss	status,2,c
  5594  000920  D13E               	goto	i2l593
  5595                           
  5596                           ; BSR set to: 4
  5597  000922  0104               	movlb	4	; () banked
  5598  000924  5124               	movf	36,w,b	;volatile
  5599  000926  0B0F               	andlw	15
  5600  000928  0900               	iorlw	0
  5601  00092A  B4D8               	btfsc	status,2,c
  5602  00092C  D138               	goto	i2l593
  5603                           
  5604                           ; BSR set to: 4
  5605  00092E  0104               	movlb	4	; () banked
  5606  000930  5124               	movf	36,w,b	;volatile
  5607  000932  0B0F               	andlw	15
  5608  000934  6E28               	movwf	??_USBStdFeatureReqHandler& (0+255),c
  5609  000936  0E02               	movlw	2
  5610  000938  5C28               	subwf	??_USBStdFeatureReqHandler,w,c
  5611  00093A  B0D8               	btfsc	status,0,c
  5612  00093C  D130               	goto	i2l593
  5613                           
  5614                           ; BSR set to: 4
  5615  00093E  0100               	movlb	0	; () banked
  5616  000940  5178               	movf	_USBDeviceState& (0+255),w,b	;volatile
  5617  000942  0A20               	xorlw	32
  5618  000944  A4D8               	btfss	status,2,c
  5619  000946  D12B               	goto	i2l593
  5620                           
  5621                           ; BSR set to: 0
  5622                           ;usb_device.c: 2817: {
  5623                           ;usb_device.c: 2820: inPipes[0].info.bits.busy = 1;
  5624  000948  0100               	movlb	0	; () banked
  5625  00094A  8F7D               	bsf	(_inPipes+3)& (0+255),7,b	;volatile
  5626                           
  5627                           ;usb_device.c: 2823: if(SetupPkt.EPDir == 0)
  5628  00094C  0104               	movlb	4	; () banked
  5629  00094E  BF24               	btfsc	36,7,b	;volatile
  5630  000950  D01F               	goto	i2l4136
  5631                           
  5632                           ; BSR set to: 4
  5633                           ;usb_device.c: 2824: {
  5634                           ;usb_device.c: 2825: p = (BDT_ENTRY*)pBDTEntryOut[SetupPkt.EPNum];
  5635  000952  0104               	movlb	4	; () banked
  5636  000954  5124               	movf	36,w,b	;volatile
  5637  000956  0B0F               	andlw	15
  5638  000958  6E28               	movwf	??_USBStdFeatureReqHandler& (0+255),c
  5639  00095A  5028               	movf	??_USBStdFeatureReqHandler,w,c
  5640  00095C  0D02               	mullw	2
  5641  00095E  0100               	movlb	0	; () banked
  5642  000960  0E6C               	movlw	low _pBDTEntryOut
  5643  000962  24F3               	addwf	prodl,w,c
  5644  000964  6ED9               	movwf	fsr2l,c
  5645  000966  0100               	movlb	0	; () banked
  5646  000968  0E00               	movlw	high _pBDTEntryOut
  5647  00096A  20F4               	addwfc	prodh,w,c
  5648  00096C  6EDA               	movwf	fsr2h,c
  5649  00096E  CFDE F02E          	movff	postinc2,USBStdFeatureReqHandler@p
  5650  000972  CFDD F02F          	movff	postdec2,USBStdFeatureReqHandler@p+1
  5651                           
  5652                           ;usb_device.c: 2826: current_ep_data.Val = ep_data_out[SetupPkt.EPNum].Val;
  5653  000976  0104               	movlb	4	; () banked
  5654  000978  5124               	movf	36,w,b	;volatile
  5655  00097A  0B0F               	andlw	15
  5656  00097C  6E28               	movwf	??_USBStdFeatureReqHandler& (0+255),c
  5657  00097E  5028               	movf	??_USBStdFeatureReqHandler,w,c
  5658  000980  0D01               	mullw	1
  5659  000982  0100               	movlb	0	; () banked
  5660  000984  0E76               	movlw	low _ep_data_out	;volatile
  5661  000986  24F3               	addwf	prodl,w,c
  5662  000988  6ED9               	movwf	fsr2l,c
  5663  00098A  0100               	movlb	0	; () banked
  5664  00098C  0E00               	movlw	high _ep_data_out	;volatile
  5665  00098E  D01E               	goto	L17
  5666  000990                     i2l4136:
  5667                           
  5668                           ;usb_device.c: 2828: else
  5669                           ;usb_device.c: 2829: {
  5670                           ;usb_device.c: 2830: p = (BDT_ENTRY*)pBDTEntryIn[SetupPkt.EPNum];
  5671  000990  0104               	movlb	4	; () banked
  5672  000992  5124               	movf	36,w,b	;volatile
  5673  000994  0B0F               	andlw	15
  5674  000996  6E28               	movwf	??_USBStdFeatureReqHandler& (0+255),c
  5675  000998  5028               	movf	??_USBStdFeatureReqHandler,w,c
  5676  00099A  0D02               	mullw	2
  5677  00099C  0100               	movlb	0	; () banked
  5678  00099E  0E68               	movlw	low _pBDTEntryIn
  5679  0009A0  24F3               	addwf	prodl,w,c
  5680  0009A2  6ED9               	movwf	fsr2l,c
  5681  0009A4  0100               	movlb	0	; () banked
  5682  0009A6  0E00               	movlw	high _pBDTEntryIn
  5683  0009A8  20F4               	addwfc	prodh,w,c
  5684  0009AA  6EDA               	movwf	fsr2h,c
  5685  0009AC  CFDE F02E          	movff	postinc2,USBStdFeatureReqHandler@p
  5686  0009B0  CFDD F02F          	movff	postdec2,USBStdFeatureReqHandler@p+1
  5687                           
  5688                           ;usb_device.c: 2831: current_ep_data.Val = ep_data_in[SetupPkt.EPNum].Val;
  5689  0009B4  0104               	movlb	4	; () banked
  5690  0009B6  5124               	movf	36,w,b	;volatile
  5691  0009B8  0B0F               	andlw	15
  5692  0009BA  6E28               	movwf	??_USBStdFeatureReqHandler& (0+255),c
  5693  0009BC  5028               	movf	??_USBStdFeatureReqHandler,w,c
  5694  0009BE  0D01               	mullw	1
  5695  0009C0  0100               	movlb	0	; () banked
  5696  0009C2  0E74               	movlw	low _ep_data_in	;volatile
  5697  0009C4  24F3               	addwf	prodl,w,c
  5698  0009C6  6ED9               	movwf	fsr2l,c
  5699  0009C8  0100               	movlb	0	; () banked
  5700  0009CA  0E00               	movlw	high _ep_data_in	;volatile
  5701  0009CC                     L17:
  5702  0009CC  20F4               	addwfc	prodh,w,c
  5703  0009CE  6EDA               	movwf	fsr2h,c
  5704  0009D0  50DF               	movf	indf2,w,c
  5705  0009D2  6E2D               	movwf	USBStdFeatureReqHandler@current_ep_data,c
  5706                           
  5707                           ; BSR set to: 0
  5708                           ;usb_device.c: 2832: }
  5709                           ;usb_device.c: 2838: if(current_ep_data.bits.ping_pong_state == 0)
  5710                           
  5711                           ; BSR set to: 0
  5712  0009D4  B02D               	btfsc	USBStdFeatureReqHandler@current_ep_data,0,c
  5713  0009D6  D002               	goto	i2l4142
  5714                           
  5715                           ; BSR set to: 0
  5716                           ;usb_device.c: 2839: {
  5717                           ;usb_device.c: 2840: {((uint8_t_VAL*)&p)->Val &= ~0x0004;};
  5718  0009D8  942E               	bcf	USBStdFeatureReqHandler@p,2,c
  5719                           
  5720                           ;usb_device.c: 2841: }
  5721  0009DA  D001               	goto	i2l4144
  5722  0009DC                     i2l4142:
  5723                           
  5724                           ; BSR set to: 0
  5725                           ;usb_device.c: 2842: else
  5726                           ;usb_device.c: 2843: {
  5727                           ;usb_device.c: 2844: {((uint8_t_VAL*)&p)->Val |= 0x0004;};
  5728  0009DC  842E               	bsf	USBStdFeatureReqHandler@p,2,c
  5729  0009DE                     i2l4144:
  5730                           
  5731                           ; BSR set to: 0
  5732                           ;usb_device.c: 2845: }
  5733                           ;usb_device.c: 2850: if(SetupPkt.EPDir == 0)
  5734  0009DE  0104               	movlb	4	; () banked
  5735  0009E0  BF24               	btfsc	36,7,b	;volatile
  5736  0009E2  D00D               	goto	i2l4148
  5737                           
  5738                           ; BSR set to: 4
  5739                           ;usb_device.c: 2851: {
  5740                           ;usb_device.c: 2852: pBDTEntryOut[SetupPkt.EPNum] = (volatile BDT_ENTRY *)p;
  5741  0009E4  0104               	movlb	4	; () banked
  5742  0009E6  5124               	movf	36,w,b	;volatile
  5743  0009E8  0B0F               	andlw	15
  5744  0009EA  6E28               	movwf	??_USBStdFeatureReqHandler& (0+255),c
  5745  0009EC  5028               	movf	??_USBStdFeatureReqHandler,w,c
  5746  0009EE  0D02               	mullw	2
  5747  0009F0  0100               	movlb	0	; () banked
  5748  0009F2  0E6C               	movlw	low _pBDTEntryOut
  5749  0009F4  24F3               	addwf	prodl,w,c
  5750  0009F6  6ED9               	movwf	fsr2l,c
  5751  0009F8  0100               	movlb	0	; () banked
  5752  0009FA  0E00               	movlw	high _pBDTEntryOut
  5753  0009FC  D00C               	goto	L18
  5754  0009FE                     i2l4148:
  5755                           
  5756                           ;usb_device.c: 2854: else
  5757                           ;usb_device.c: 2855: {
  5758                           ;usb_device.c: 2856: pBDTEntryIn[SetupPkt.EPNum] = (volatile BDT_ENTRY *)p;
  5759  0009FE  0104               	movlb	4	; () banked
  5760  000A00  5124               	movf	36,w,b	;volatile
  5761  000A02  0B0F               	andlw	15
  5762  000A04  6E28               	movwf	??_USBStdFeatureReqHandler& (0+255),c
  5763  000A06  5028               	movf	??_USBStdFeatureReqHandler,w,c
  5764  000A08  0D02               	mullw	2
  5765  000A0A  0100               	movlb	0	; () banked
  5766  000A0C  0E68               	movlw	low _pBDTEntryIn
  5767  000A0E  24F3               	addwf	prodl,w,c
  5768  000A10  6ED9               	movwf	fsr2l,c
  5769  000A12  0100               	movlb	0	; () banked
  5770  000A14  0E00               	movlw	high _pBDTEntryIn
  5771  000A16                     L18:
  5772  000A16  20F4               	addwfc	prodh,w,c
  5773  000A18  6EDA               	movwf	fsr2h,c
  5774  000A1A  C02E  FFDE         	movff	USBStdFeatureReqHandler@p,postinc2
  5775  000A1E  C02F  FFDD         	movff	USBStdFeatureReqHandler@p+1,postdec2
  5776                           
  5777                           ; BSR set to: 0
  5778                           ;usb_device.c: 2857: }
  5779                           ;usb_device.c: 2860: if(SetupPkt.bRequest == 3)
  5780                           
  5781                           ; BSR set to: 0
  5782  000A22  0104               	movlb	4	; () banked
  5783  000A24  5121               	movf	33,w,b	;volatile
  5784  000A26  0A03               	xorlw	3
  5785  000A28  A4D8               	btfss	status,2,c
  5786  000A2A  D033               	goto	i2l4164
  5787                           
  5788                           ; BSR set to: 4
  5789                           ;usb_device.c: 2861: {
  5790                           ;usb_device.c: 2862: if(p->STAT.UOWN == 1)
  5791  000A2C  C02E  FFD9         	movff	USBStdFeatureReqHandler@p,fsr2l
  5792  000A30  C02F  FFDA         	movff	USBStdFeatureReqHandler@p+1,fsr2h
  5793  000A34  AEDF               	btfss	indf2,7,c
  5794  000A36  D020               	goto	i2l4160
  5795                           
  5796                           ; BSR set to: 4
  5797                           ;usb_device.c: 2863: {
  5798                           ;usb_device.c: 2866: if(SetupPkt.EPDir == 0)
  5799  000A38  0104               	movlb	4	; () banked
  5800  000A3A  BF24               	btfsc	36,7,b	;volatile
  5801  000A3C  D00D               	goto	i2l4158
  5802                           
  5803                           ; BSR set to: 4
  5804                           ;usb_device.c: 2867: {
  5805                           ;usb_device.c: 2868: ep_data_out[SetupPkt.EPNum].bits.transfer_terminated = 1;
  5806  000A3E  0104               	movlb	4	; () banked
  5807  000A40  5124               	movf	36,w,b	;volatile
  5808  000A42  0B0F               	andlw	15
  5809  000A44  6E28               	movwf	??_USBStdFeatureReqHandler& (0+255),c
  5810  000A46  5028               	movf	??_USBStdFeatureReqHandler,w,c
  5811  000A48  0D01               	mullw	1
  5812  000A4A  0100               	movlb	0	; () banked
  5813  000A4C  0E76               	movlw	low _ep_data_out	;volatile
  5814  000A4E  24F3               	addwf	prodl,w,c
  5815  000A50  6ED9               	movwf	fsr2l,c
  5816  000A52  0100               	movlb	0	; () banked
  5817  000A54  0E00               	movlw	high _ep_data_out	;volatile
  5818  000A56  D00C               	goto	L19
  5819  000A58                     i2l4158:
  5820                           
  5821                           ;usb_device.c: 2870: else
  5822                           ;usb_device.c: 2871: {
  5823                           ;usb_device.c: 2872: ep_data_in[SetupPkt.EPNum].bits.transfer_terminated = 1;
  5824  000A58  0104               	movlb	4	; () banked
  5825  000A5A  5124               	movf	36,w,b	;volatile
  5826  000A5C  0B0F               	andlw	15
  5827  000A5E  6E28               	movwf	??_USBStdFeatureReqHandler& (0+255),c
  5828  000A60  5028               	movf	??_USBStdFeatureReqHandler,w,c
  5829  000A62  0D01               	mullw	1
  5830  000A64  0100               	movlb	0	; () banked
  5831  000A66  0E74               	movlw	low _ep_data_in	;volatile
  5832  000A68  24F3               	addwf	prodl,w,c
  5833  000A6A  6ED9               	movwf	fsr2l,c
  5834  000A6C  0100               	movlb	0	; () banked
  5835  000A6E  0E00               	movlw	high _ep_data_in	;volatile
  5836  000A70                     L19:
  5837  000A70  20F4               	addwfc	prodh,w,c
  5838  000A72  6EDA               	movwf	fsr2h,c
  5839  000A74  0100               	movlb	0	; () banked
  5840  000A76  82DF               	bsf	indf2,1,c
  5841  000A78                     i2l4160:
  5842                           
  5843                           ;usb_device.c: 2873: }
  5844                           ;usb_device.c: 2874: }
  5845                           ;usb_device.c: 2877: p->STAT.Val |= 0x04;
  5846  000A78  C02E  FFD9         	movff	USBStdFeatureReqHandler@p,fsr2l
  5847  000A7C  C02F  FFDA         	movff	USBStdFeatureReqHandler@p+1,fsr2h
  5848  000A80  0E00               	movlw	0
  5849  000A82  84DB               	bsf	plusw2,2,c
  5850                           
  5851                           ;usb_device.c: 2878: p->STAT.Val |= 0x80;
  5852  000A84  C02E  FFD9         	movff	USBStdFeatureReqHandler@p,fsr2l
  5853  000A88  C02F  FFDA         	movff	USBStdFeatureReqHandler@p+1,fsr2h
  5854  000A8C  0E00               	movlw	0
  5855  000A8E  8EDB               	bsf	plusw2,7,c
  5856                           
  5857                           ;usb_device.c: 2879: }
  5858  000A90  D086               	goto	i2l593
  5859  000A92                     i2l4164:
  5860                           
  5861                           ;usb_device.c: 2880: else
  5862                           ;usb_device.c: 2881: {
  5863                           ;usb_device.c: 2885: {((uint8_t_VAL*)&p)->Val ^= 0x0004;};
  5864  000A92  0E04               	movlw	4
  5865  000A94  1A2E               	xorwf	USBStdFeatureReqHandler@p,f,c
  5866                           
  5867                           ;usb_device.c: 2887: if(p->STAT.UOWN == 1)
  5868  000A96  C02E  FFD9         	movff	USBStdFeatureReqHandler@p,fsr2l
  5869  000A9A  C02F  FFDA         	movff	USBStdFeatureReqHandler@p+1,fsr2h
  5870  000A9E  AEDF               	btfss	indf2,7,c
  5871  000AA0  D01B               	goto	i2l4174
  5872                           
  5873                           ;usb_device.c: 2888: {
  5874                           ;usb_device.c: 2891: p->STAT.Val &= (~0x80);
  5875  000AA2  C02E  FFD9         	movff	USBStdFeatureReqHandler@p,fsr2l
  5876  000AA6  C02F  FFDA         	movff	USBStdFeatureReqHandler@p+1,fsr2h
  5877  000AAA  0E7F               	movlw	127
  5878  000AAC  16DF               	andwf	indf2,f,c
  5879                           
  5880                           ;usb_device.c: 2892: p->STAT.Val |= 0x40;
  5881  000AAE  C02E  FFD9         	movff	USBStdFeatureReqHandler@p,fsr2l
  5882  000AB2  C02F  FFDA         	movff	USBStdFeatureReqHandler@p+1,fsr2h
  5883  000AB6  0E00               	movlw	0
  5884  000AB8  8CDB               	bsf	plusw2,6,c
  5885                           
  5886                           ;usb_device.c: 2893: USER_USB_CALLBACK_EVENT_HANDLER(EVENT_TRANSFER_TERMINATED,p,sizeof(
      +                          p));
  5887  000ABA  0E00               	movlw	0
  5888  000ABC  6E21               	movwf	USER_USB_CALLBACK_EVENT_HANDLER@event+1,c
  5889  000ABE  0E05               	movlw	5
  5890  000AC0  6E20               	movwf	USER_USB_CALLBACK_EVENT_HANDLER@event,c
  5891  000AC2  C02F  F023         	movff	USBStdFeatureReqHandler@p+1,USER_USB_CALLBACK_EVENT_HANDLER@pdata+1
  5892  000AC6  C02E  F022         	movff	USBStdFeatureReqHandler@p,USER_USB_CALLBACK_EVENT_HANDLER@pdata
  5893  000ACA  0E00               	movlw	0
  5894  000ACC  6E25               	movwf	USER_USB_CALLBACK_EVENT_HANDLER@size+1,c
  5895  000ACE  0E02               	movlw	2
  5896  000AD0  6E24               	movwf	USER_USB_CALLBACK_EVENT_HANDLER@size,c
  5897  000AD2  ECAF  F00F         	call	_USER_USB_CALLBACK_EVENT_HANDLER	;wreg free
  5898                           
  5899                           ;usb_device.c: 2894: }
  5900  000AD6  D006               	goto	i2l4176
  5901  000AD8                     i2l4174:
  5902                           
  5903                           ;usb_device.c: 2895: else
  5904                           ;usb_device.c: 2896: {
  5905                           ;usb_device.c: 2898: p->STAT.Val |= 0x40;
  5906  000AD8  C02E  FFD9         	movff	USBStdFeatureReqHandler@p,fsr2l
  5907  000ADC  C02F  FFDA         	movff	USBStdFeatureReqHandler@p+1,fsr2h
  5908  000AE0  0E00               	movlw	0
  5909  000AE2  8CDB               	bsf	plusw2,6,c
  5910  000AE4                     i2l4176:
  5911                           
  5912                           ;usb_device.c: 2899: }
  5913                           ;usb_device.c: 2903: {((uint8_t_VAL*)&p)->Val ^= 0x0004;};
  5914  000AE4  0E04               	movlw	4
  5915  000AE6  1A2E               	xorwf	USBStdFeatureReqHandler@p,f,c
  5916                           
  5917                           ;usb_device.c: 2909: if((current_ep_data.bits.transfer_terminated != 0) || (p->STAT.UOWN
      +                           == 1))
  5918  000AE8  B22D               	btfsc	USBStdFeatureReqHandler@current_ep_data,1,c
  5919  000AEA  D006               	goto	i2l589
  5920  000AEC  C02E  FFD9         	movff	USBStdFeatureReqHandler@p,fsr2l
  5921  000AF0  C02F  FFDA         	movff	USBStdFeatureReqHandler@p+1,fsr2h
  5922  000AF4  AEDF               	btfss	indf2,7,c
  5923  000AF6  D035               	goto	i2l4190
  5924  000AF8                     i2l589:
  5925                           
  5926                           ;usb_device.c: 2910: {
  5927                           ;usb_device.c: 2911: if(SetupPkt.EPDir == 0)
  5928  000AF8  0104               	movlb	4	; () banked
  5929  000AFA  BF24               	btfsc	36,7,b	;volatile
  5930  000AFC  D00D               	goto	i2l4184
  5931                           
  5932                           ; BSR set to: 4
  5933                           ;usb_device.c: 2912: {
  5934                           ;usb_device.c: 2913: ep_data_out[SetupPkt.EPNum].bits.transfer_terminated = 0;
  5935  000AFE  0104               	movlb	4	; () banked
  5936  000B00  5124               	movf	36,w,b	;volatile
  5937  000B02  0B0F               	andlw	15
  5938  000B04  6E28               	movwf	??_USBStdFeatureReqHandler& (0+255),c
  5939  000B06  5028               	movf	??_USBStdFeatureReqHandler,w,c
  5940  000B08  0D01               	mullw	1
  5941  000B0A  0100               	movlb	0	; () banked
  5942  000B0C  0E76               	movlw	low _ep_data_out	;volatile
  5943  000B0E  24F3               	addwf	prodl,w,c
  5944  000B10  6ED9               	movwf	fsr2l,c
  5945  000B12  0100               	movlb	0	; () banked
  5946  000B14  0E00               	movlw	high _ep_data_out	;volatile
  5947  000B16  D00C               	goto	L20
  5948  000B18                     i2l4184:
  5949                           
  5950                           ;usb_device.c: 2915: else
  5951                           ;usb_device.c: 2916: {
  5952                           ;usb_device.c: 2917: ep_data_in[SetupPkt.EPNum].bits.transfer_terminated = 0;
  5953  000B18  0104               	movlb	4	; () banked
  5954  000B1A  5124               	movf	36,w,b	;volatile
  5955  000B1C  0B0F               	andlw	15
  5956  000B1E  6E28               	movwf	??_USBStdFeatureReqHandler& (0+255),c
  5957  000B20  5028               	movf	??_USBStdFeatureReqHandler,w,c
  5958  000B22  0D01               	mullw	1
  5959  000B24  0100               	movlb	0	; () banked
  5960  000B26  0E74               	movlw	low _ep_data_in	;volatile
  5961  000B28  24F3               	addwf	prodl,w,c
  5962  000B2A  6ED9               	movwf	fsr2l,c
  5963  000B2C  0100               	movlb	0	; () banked
  5964  000B2E  0E00               	movlw	high _ep_data_in	;volatile
  5965  000B30                     L20:
  5966  000B30  20F4               	addwfc	prodh,w,c
  5967  000B32  6EDA               	movwf	fsr2h,c
  5968  000B34  0100               	movlb	0	; () banked
  5969  000B36  92DF               	bcf	indf2,1,c
  5970                           
  5971                           ; BSR set to: 0
  5972                           ;usb_device.c: 2918: }
  5973                           ;usb_device.c: 2920: p->STAT.Val &= ~(0x80 | 0x40 | 0x04);
  5974                           
  5975                           ; BSR set to: 0
  5976  000B38  C02E  FFD9         	movff	USBStdFeatureReqHandler@p,fsr2l
  5977  000B3C  C02F  FFDA         	movff	USBStdFeatureReqHandler@p+1,fsr2h
  5978  000B40  0E3B               	movlw	59
  5979  000B42  16DF               	andwf	indf2,f,c
  5980                           
  5981                           ; BSR set to: 0
  5982                           ;usb_device.c: 2923: USER_USB_CALLBACK_EVENT_HANDLER(EVENT_TRANSFER_TERMINATED,p,sizeof(
      +                          p));
  5983  000B44  0E00               	movlw	0
  5984  000B46  6E21               	movwf	USER_USB_CALLBACK_EVENT_HANDLER@event+1,c
  5985  000B48  0E05               	movlw	5
  5986  000B4A  6E20               	movwf	USER_USB_CALLBACK_EVENT_HANDLER@event,c
  5987  000B4C  C02F  F023         	movff	USBStdFeatureReqHandler@p+1,USER_USB_CALLBACK_EVENT_HANDLER@pdata+1
  5988  000B50  C02E  F022         	movff	USBStdFeatureReqHandler@p,USER_USB_CALLBACK_EVENT_HANDLER@pdata
  5989  000B54  0E00               	movlw	0
  5990  000B56  6E25               	movwf	USER_USB_CALLBACK_EVENT_HANDLER@size+1,c
  5991  000B58  0E02               	movlw	2
  5992  000B5A  6E24               	movwf	USER_USB_CALLBACK_EVENT_HANDLER@size,c
  5993  000B5C  ECAF  F00F         	call	_USER_USB_CALLBACK_EVENT_HANDLER	;wreg free
  5994                           
  5995                           ;usb_device.c: 2924: }
  5996  000B60  D006               	goto	i2l4192
  5997  000B62                     i2l4190:
  5998                           
  5999                           ;usb_device.c: 2925: else
  6000                           ;usb_device.c: 2926: {
  6001                           ;usb_device.c: 2928: p->STAT.Val &= ~(0x80 | 0x40 | 0x04);
  6002  000B62  C02E  FFD9         	movff	USBStdFeatureReqHandler@p,fsr2l
  6003  000B66  C02F  FFDA         	movff	USBStdFeatureReqHandler@p+1,fsr2h
  6004  000B6A  0E3B               	movlw	59
  6005  000B6C  16DF               	andwf	indf2,f,c
  6006  000B6E                     i2l4192:
  6007                           
  6008                           ;usb_device.c: 2929: }
  6009                           ;usb_device.c: 2976: pUEP = (unsigned char*)(&UEP0+SetupPkt.EPNum);
  6010  000B6E  0104               	movlb	4	; () banked
  6011  000B70  5124               	movf	36,w,b	;volatile
  6012  000B72  0B0F               	andlw	15
  6013  000B74  6E28               	movwf	??_USBStdFeatureReqHandler& (0+255),c
  6014  000B76  5028               	movf	??_USBStdFeatureReqHandler,w,c
  6015  000B78  0D01               	mullw	1
  6016  000B7A  0E70               	movlw	112	;volatile
  6017  000B7C  6E29               	movwf	(??_USBStdFeatureReqHandler+1)& (0+255),c
  6018  000B7E  0E0F               	movlw	15	;volatile
  6019  000B80  6E2A               	movwf	(??_USBStdFeatureReqHandler+2)& (0+255),c
  6020  000B82  50F3               	movf	prodl,w,c
  6021  000B84  2629               	addwf	??_USBStdFeatureReqHandler+1,f,c
  6022  000B86  50F4               	movf	prodh,w,c
  6023  000B88  222A               	addwfc	??_USBStdFeatureReqHandler+2,f,c
  6024  000B8A  C029  F02B         	movff	??_USBStdFeatureReqHandler+1,USBStdFeatureReqHandler@pUEP
  6025  000B8E  C02A  F02C         	movff	??_USBStdFeatureReqHandler+2,USBStdFeatureReqHandler@pUEP+1
  6026                           
  6027                           ; BSR set to: 4
  6028                           ;usb_device.c: 2980: *pUEP &= ~0x0001;
  6029  000B92  C02B  FFD9         	movff	USBStdFeatureReqHandler@pUEP,fsr2l
  6030  000B96  C02C  FFDA         	movff	USBStdFeatureReqHandler@pUEP+1,fsr2h
  6031  000B9A  0EFE               	movlw	254
  6032  000B9C  16DF               	andwf	indf2,f,c
  6033  000B9E                     i2l593:
  6034  000B9E  0012               	return	
  6035  000BA0                     __end_of_USBStdFeatureReqHandler:
  6036                           	opt stack 0
  6037                           pclatu	equ	0xFFB
  6038                           pclath	equ	0xFFA
  6039                           tblptru	equ	0xFF8
  6040                           tblptrh	equ	0xFF7
  6041                           tblptrl	equ	0xFF6
  6042                           tablat	equ	0xFF5
  6043                           prodh	equ	0xFF4
  6044                           prodl	equ	0xFF3
  6045                           intcon	equ	0xFF2
  6046                           postinc0	equ	0xFEE
  6047                           fsr0h	equ	0xFEA
  6048                           fsr0l	equ	0xFE9
  6049                           wreg	equ	0xFE8
  6050                           indf1	equ	0xFE7
  6051                           fsr1h	equ	0xFE2
  6052                           fsr1l	equ	0xFE1
  6053                           bsr	equ	0xFE0
  6054                           indf2	equ	0xFDF
  6055                           postinc2	equ	0xFDE
  6056                           postdec2	equ	0xFDD
  6057                           plusw2	equ	0xFDB
  6058                           fsr2h	equ	0xFDA
  6059                           fsr2l	equ	0xFD9
  6060                           status	equ	0xFD8
  6061                           
  6062 ;; *************** function _USER_USB_CALLBACK_EVENT_HANDLER *****************
  6063 ;; Defined at:
  6064 ;;		line 122 in file "../src/main_hid.c"
  6065 ;; Parameters:    Size  Location     Type
  6066 ;;  event           2   31[COMRAM] enum E5304
  6067 ;;  pdata           2   33[COMRAM] PTR void 
  6068 ;;		 -> USTATcopy(1), USBActiveConfiguration(1), BDT(32), NULL(0), 
  6069 ;;  size            2   35[COMRAM] unsigned int 
  6070 ;; Auto vars:     Size  Location     Type
  6071 ;;		None
  6072 ;; Return value:  Size  Location     Type
  6073 ;;                  1    wreg      unsigned char 
  6074 ;; Registers used:
  6075 ;;		wreg, fsr2l, fsr2h, status,2, status,0, prodl, prodh, cstack
  6076 ;; Tracked objects:
  6077 ;;		On entry : 0/0
  6078 ;;		On exit  : 0/0
  6079 ;;		Unchanged: 0/0
  6080 ;; Data sizes:     COMRAM   BANK0   BANK1   BANK2   BANK3   BANK4   BANK5   BANK6   BANK7
  6081 ;;      Params:         6       0       0       0       0       0       0       0       0
  6082 ;;      Locals:         0       0       0       0       0       0       0       0       0
  6083 ;;      Temps:          2       0       0       0       0       0       0       0       0
  6084 ;;      Totals:         8       0       0       0       0       0       0       0       0
  6085 ;;Total ram usage:        8 bytes
  6086 ;; Hardware stack levels used:    1
  6087 ;; Hardware stack levels required when called:    3
  6088 ;; This function calls:
  6089 ;;		_APP_CustomHIDInitialize
  6090 ;;		_APP_USBCBErrorHandler
  6091 ;;		_APP_USBCBSuspend
  6092 ;;		_APP_USBCBWakeFromSuspend
  6093 ;;		_APP_USBCB_SOF_Handler
  6094 ;;		_USBCheckHIDRequest
  6095 ;; This function is called by:
  6096 ;;		_USBDeviceTasks
  6097 ;;		_USBStdSetCfgHandler
  6098 ;;		_USBSuspend
  6099 ;;		_USBWakeFromSuspend
  6100 ;;		_USBCtrlTrfSetupHandler
  6101 ;;		_USBCheckStdRequest
  6102 ;;		_USBStdFeatureReqHandler
  6103 ;; This function uses a non-reentrant model
  6104 ;;
  6105                           
  6106                           	psect	text28
  6107  001F5E                     __ptext28:
  6108                           	opt stack 0
  6109  001F5E                     _USER_USB_CALLBACK_EVENT_HANDLER:
  6110                           	opt stack 21
  6111                           
  6112                           ;main_hid.c: 124: switch(event)
  6113                           
  6114                           ;incstack = 0
  6115  001F5E  D012               	goto	i2l3896
  6116  001F60                     i2l3882:
  6117                           
  6118                           ;main_hid.c: 130: APP_USBCB_SOF_Handler();
  6119  001F60  EC71  F011         	call	_APP_USBCB_SOF_Handler	;wreg free
  6120                           
  6121                           ;main_hid.c: 134: break;
  6122  001F64  D039               	goto	i2l166
  6123  001F66                     i2l3884:
  6124                           
  6125                           ;main_hid.c: 136: APP_USBCBSuspend();
  6126  001F66  EC73  F011         	call	_APP_USBCBSuspend	;wreg free
  6127                           
  6128                           ;main_hid.c: 139: break;
  6129  001F6A  D036               	goto	i2l166
  6130  001F6C                     i2l3886:
  6131                           
  6132                           ;main_hid.c: 141: APP_USBCBWakeFromSuspend();
  6133  001F6C  EC72  F011         	call	_APP_USBCBWakeFromSuspend	;wreg free
  6134                           
  6135                           ;main_hid.c: 144: break;
  6136  001F70  D033               	goto	i2l166
  6137  001F72                     i2l3888:
  6138                           
  6139                           ;main_hid.c: 149: APP_CustomHIDInitialize();
  6140  001F72  EC93  F010         	call	_APP_CustomHIDInitialize	;wreg free
  6141                           
  6142                           ;main_hid.c: 150: break;
  6143  001F76  D030               	goto	i2l166
  6144  001F78                     i2l3890:
  6145                           
  6146                           ;main_hid.c: 158: USBCheckHIDRequest();
  6147  001F78  ECC6  F009         	call	_USBCheckHIDRequest	;wreg free
  6148                           
  6149                           ;main_hid.c: 159: break;
  6150  001F7C  D02D               	goto	i2l166
  6151  001F7E                     i2l3892:
  6152                           
  6153                           ;main_hid.c: 161: APP_USBCBErrorHandler();
  6154  001F7E  EC74  F011         	call	_APP_USBCBErrorHandler	;wreg free
  6155                           
  6156                           ;main_hid.c: 162: break;
  6157  001F82  D02A               	goto	i2l166
  6158  001F84                     i2l3896:
  6159  001F84  C020  F026         	movff	USER_USB_CALLBACK_EVENT_HANDLER@event,??_USER_USB_CALLBACK_EVENT_HANDLER
  6160  001F88  C021  F027         	movff	USER_USB_CALLBACK_EVENT_HANDLER@event+1,??_USER_USB_CALLBACK_EVENT_HANDLER+1
  6161                           
  6162                           ; Switch on 2 bytes has been partitioned into a top level switch of size 1, and 2 sub-sw
      +                          itches
  6163                           ; Switch size 1, requested type "space"
  6164                           ; Number of cases is 2, Range of values is 0 to 127
  6165                           ; switch strategies available:
  6166                           ; Name         Instructions Cycles
  6167                           ; simple_byte            7     4 (average)
  6168                           ;	Chosen strategy is simple_byte
  6169  001F8C  5027               	movf	??_USER_USB_CALLBACK_EVENT_HANDLER+1,w,c
  6170  001F8E  0A00               	xorlw	0	; case 0
  6171  001F90  B4D8               	btfsc	status,2,c
  6172  001F92  D004               	goto	i2l4718
  6173  001F94  0A7F               	xorlw	127	; case 127
  6174  001F96  B4D8               	btfsc	status,2,c
  6175  001F98  D01B               	goto	i2l4720
  6176  001F9A  D01E               	goto	i2l166
  6177  001F9C                     i2l4718:
  6178                           
  6179                           ; Switch size 1, requested type "space"
  6180                           ; Number of cases is 8, Range of values is 1 to 117
  6181                           ; switch strategies available:
  6182                           ; Name         Instructions Cycles
  6183                           ; simple_byte           25    13 (average)
  6184                           ;	Chosen strategy is simple_byte
  6185  001F9C  5026               	movf	??_USER_USB_CALLBACK_EVENT_HANDLER,w,c
  6186  001F9E  0A01               	xorlw	1	; case 1
  6187  001FA0  B4D8               	btfsc	status,2,c
  6188  001FA2  D7E7               	goto	i2l3888
  6189  001FA4  0A03               	xorlw	3	; case 2
  6190  001FA6  B4D8               	btfsc	status,2,c
  6191  001FA8  D017               	goto	i2l166
  6192  001FAA  0A01               	xorlw	1	; case 3
  6193  001FAC  B4D8               	btfsc	status,2,c
  6194  001FAE  D7E4               	goto	i2l3890
  6195  001FB0  0A06               	xorlw	6	; case 5
  6196  001FB2  B4D8               	btfsc	status,2,c
  6197  001FB4  D011               	goto	i2l166
  6198  001FB6  0A77               	xorlw	119	; case 114
  6199  001FB8  B4D8               	btfsc	status,2,c
  6200  001FBA  D00E               	goto	i2l166
  6201  001FBC  0A01               	xorlw	1	; case 115
  6202  001FBE  B4D8               	btfsc	status,2,c
  6203  001FC0  D7CF               	goto	i2l3882
  6204  001FC2  0A07               	xorlw	7	; case 116
  6205  001FC4  B4D8               	btfsc	status,2,c
  6206  001FC6  D7D2               	goto	i2l3886
  6207  001FC8  0A01               	xorlw	1	; case 117
  6208  001FCA  B4D8               	btfsc	status,2,c
  6209  001FCC  D7CC               	goto	i2l3884
  6210  001FCE  D004               	goto	i2l166
  6211  001FD0                     i2l4720:
  6212                           
  6213                           ; Switch size 1, requested type "space"
  6214                           ; Number of cases is 1, Range of values is 255 to 255
  6215                           ; switch strategies available:
  6216                           ; Name         Instructions Cycles
  6217                           ; simple_byte            4     3 (average)
  6218                           ;	Chosen strategy is simple_byte
  6219  001FD0  5026               	movf	??_USER_USB_CALLBACK_EVENT_HANDLER,w,c
  6220  001FD2  0AFF               	xorlw	255	; case 255
  6221  001FD4  B4D8               	btfsc	status,2,c
  6222  001FD6  D7D3               	goto	i2l3892
  6223  001FD8                     i2l166:
  6224  001FD8  0012               	return	
  6225  001FDA                     __end_of_USER_USB_CALLBACK_EVENT_HANDLER:
  6226                           	opt stack 0
  6227                           pclatu	equ	0xFFB
  6228                           pclath	equ	0xFFA
  6229                           tblptru	equ	0xFF8
  6230                           tblptrh	equ	0xFF7
  6231                           tblptrl	equ	0xFF6
  6232                           tablat	equ	0xFF5
  6233                           prodh	equ	0xFF4
  6234                           prodl	equ	0xFF3
  6235                           intcon	equ	0xFF2
  6236                           postinc0	equ	0xFEE
  6237                           fsr0h	equ	0xFEA
  6238                           fsr0l	equ	0xFE9
  6239                           wreg	equ	0xFE8
  6240                           indf1	equ	0xFE7
  6241                           fsr1h	equ	0xFE2
  6242                           fsr1l	equ	0xFE1
  6243                           bsr	equ	0xFE0
  6244                           indf2	equ	0xFDF
  6245                           postinc2	equ	0xFDE
  6246                           postdec2	equ	0xFDD
  6247                           plusw2	equ	0xFDB
  6248                           fsr2h	equ	0xFDA
  6249                           fsr2l	equ	0xFD9
  6250                           status	equ	0xFD8
  6251                           
  6252 ;; *************** function _USBCheckHIDRequest *****************
  6253 ;; Defined at:
  6254 ;;		line 157 in file "../src/usb/src/usb_device_hid.c"
  6255 ;; Parameters:    Size  Location     Type
  6256 ;;		None
  6257 ;; Auto vars:     Size  Location     Type
  6258 ;;		None
  6259 ;; Return value:  Size  Location     Type
  6260 ;;		None               void
  6261 ;; Registers used:
  6262 ;;		wreg, status,2, status,0
  6263 ;; Tracked objects:
  6264 ;;		On entry : 0/0
  6265 ;;		On exit  : 0/0
  6266 ;;		Unchanged: 0/0
  6267 ;; Data sizes:     COMRAM   BANK0   BANK1   BANK2   BANK3   BANK4   BANK5   BANK6   BANK7
  6268 ;;      Params:         0       0       0       0       0       0       0       0       0
  6269 ;;      Locals:         0       0       0       0       0       0       0       0       0
  6270 ;;      Temps:          1       0       0       0       0       0       0       0       0
  6271 ;;      Totals:         1       0       0       0       0       0       0       0       0
  6272 ;;Total ram usage:        1 bytes
  6273 ;; Hardware stack levels used:    1
  6274 ;; This function calls:
  6275 ;;		Nothing
  6276 ;; This function is called by:
  6277 ;;		_USER_USB_CALLBACK_EVENT_HANDLER
  6278 ;;		_APP_USBCBCheckOtherReq
  6279 ;; This function uses a non-reentrant model
  6280 ;;
  6281                           
  6282                           	psect	text29
  6283  00138C                     __ptext29:
  6284                           	opt stack 0
  6285  00138C                     _USBCheckHIDRequest:
  6286                           	opt stack 23
  6287                           
  6288                           ;usb_device_hid.c: 159: if(SetupPkt.Recipient != (0x01)) return;
  6289                           
  6290                           ;incstack = 0
  6291  00138C  0104               	movlb	4	; () banked
  6292  00138E  5120               	movf	32,w,b	;volatile
  6293  001390  0B1F               	andlw	31
  6294  001392  6E12               	movwf	??_USBCheckHIDRequest& (0+255),c
  6295  001394  0412               	decf	??_USBCheckHIDRequest,w,c
  6296  001396  A4D8               	btfss	status,2,c
  6297  001398  D078               	goto	i2l611
  6298                           
  6299                           ; BSR set to: 4
  6300                           ;usb_device_hid.c: 160: if(SetupPkt.bIntfID != 0x00) return;
  6301                           
  6302                           ; BSR set to: 4
  6303                           
  6304                           ; BSR set to: 4
  6305  00139A  0104               	movlb	4	; () banked
  6306  00139C  5124               	movf	36,w,b	;volatile
  6307  00139E  A4D8               	btfss	status,2,c
  6308  0013A0  D074               	goto	i2l611
  6309                           
  6310                           ; BSR set to: 4
  6311                           ;usb_device_hid.c: 167: if(SetupPkt.bRequest == 6)
  6312                           
  6313                           ; BSR set to: 4
  6314                           
  6315                           ; BSR set to: 4
  6316  0013A2  0104               	movlb	4	; () banked
  6317  0013A4  5121               	movf	33,w,b	;volatile
  6318  0013A6  0A06               	xorlw	6
  6319  0013A8  B4D8               	btfsc	status,2,c
  6320  0013AA  D01F               	goto	i2l3850
  6321  0013AC  D027               	goto	i2l3852
  6322  0013AE                     i2l3834:
  6323                           
  6324                           ; BSR set to: 4
  6325                           ;usb_device_hid.c: 172: if(USBActiveConfiguration == 1)
  6326  0013AE  044A               	decf	_USBActiveConfiguration,w,c	;volatile
  6327  0013B0  A4D8               	btfss	status,2,c
  6328  0013B2  D024               	goto	i2l3852
  6329                           
  6330                           ; BSR set to: 4
  6331                           ;usb_device_hid.c: 173: {
  6332                           ;usb_device_hid.c: 174: { inPipes[0].pSrc.bRom = (const uint8_t*)&configDescriptor1 + 18
      +                          ; inPipes[0].wCount.Val = sizeof(USB_HID_DSC)+3; inPipes[0].info.Val = 0x40 | 0x80 | 0x0
      +                          0; };
  6333  0013B4  0E08               	movlw	high (_configDescriptor1+18)
  6334  0013B6  0100               	movlb	0	; () banked
  6335  0013B8  6F7B               	movwf	(_inPipes+1)& (0+255),b	;volatile
  6336  0013BA  0E9B               	movlw	low (_configDescriptor1+18)
  6337  0013BC  0100               	movlb	0	; () banked
  6338  0013BE  6F7A               	movwf	_inPipes& (0+255),b	;volatile
  6339                           
  6340                           ; BSR set to: 0
  6341  0013C0  0E00               	movlw	0
  6342  0013C2  0100               	movlb	0	; () banked
  6343  0013C4  6F7F               	movwf	(_inPipes+5)& (0+255),b	;volatile
  6344  0013C6  0E09               	movlw	9
  6345  0013C8  D00A               	goto	L21
  6346  0013CA                     i2l3842:
  6347                           
  6348                           ;usb_device_hid.c: 182: {
  6349                           ;usb_device_hid.c: 183: { inPipes[0].pSrc.bRom = (const uint8_t*)&hid_rpt01; inPipes[0].
      +                          wCount.Val = 29; inPipes[0].info.Val = 0x40 | 0x80 | 0x00; };
  6350  0013CA  0E08               	movlw	high _hid_rpt01
  6351  0013CC  0100               	movlb	0	; () banked
  6352  0013CE  6F7B               	movwf	(_inPipes+1)& (0+255),b	;volatile
  6353  0013D0  0EB2               	movlw	low _hid_rpt01
  6354  0013D2  0100               	movlb	0	; () banked
  6355  0013D4  6F7A               	movwf	_inPipes& (0+255),b	;volatile
  6356                           
  6357                           ; BSR set to: 0
  6358  0013D6  0E00               	movlw	0
  6359  0013D8  0100               	movlb	0	; () banked
  6360  0013DA  6F7F               	movwf	(_inPipes+5)& (0+255),b	;volatile
  6361  0013DC  0E1D               	movlw	29
  6362  0013DE                     L21:
  6363  0013DE  0100               	movlb	0	; () banked
  6364  0013E0  6F7E               	movwf	(_inPipes+4)& (0+255),b	;volatile
  6365                           
  6366                           ; BSR set to: 0
  6367  0013E2  0EC0               	movlw	192
  6368  0013E4  0100               	movlb	0	; () banked
  6369  0013E6  6F7D               	movwf	(_inPipes+3)& (0+255),b	;volatile
  6370                           
  6371                           ;usb_device_hid.c: 187: }
  6372                           ;usb_device_hid.c: 188: break;
  6373  0013E8  D009               	goto	i2l3852
  6374  0013EA                     i2l3850:
  6375  0013EA  0104               	movlb	4	; () banked
  6376  0013EC  5123               	movf	35,w,b	;volatile
  6377                           
  6378                           ; Switch size 1, requested type "space"
  6379                           ; Number of cases is 3, Range of values is 33 to 35
  6380                           ; switch strategies available:
  6381                           ; Name         Instructions Cycles
  6382                           ; simple_byte           10     6 (average)
  6383                           ;	Chosen strategy is simple_byte
  6384  0013EE  0A21               	xorlw	33	; case 33
  6385  0013F0  B4D8               	btfsc	status,2,c
  6386  0013F2  D7DD               	goto	i2l3834
  6387  0013F4  0A03               	xorlw	3	; case 34
  6388  0013F6  B4D8               	btfsc	status,2,c
  6389  0013F8  D7E8               	goto	i2l3842
  6390  0013FA  0A01               	xorlw	1	; case 35
  6391  0013FC                     i2l3852:
  6392                           
  6393                           ;usb_device_hid.c: 203: }
  6394                           ;usb_device_hid.c: 205: if(SetupPkt.RequestType != (0x20>>5))
  6395  0013FC  0104               	movlb	4	; () banked
  6396  0013FE  3920               	swapf	32,w,b	;volatile
  6397  001400  32E8               	rrcf	wreg,f,c
  6398  001402  0B03               	andlw	3
  6399  001404  6E12               	movwf	??_USBCheckHIDRequest& (0+255),c
  6400  001406  0412               	decf	??_USBCheckHIDRequest,w,c
  6401  001408  A4D8               	btfss	status,2,c
  6402  00140A  D03F               	goto	i2l611
  6403  00140C  D02A               	goto	i2l3878
  6404  00140E                     i2l3856:
  6405                           
  6406                           ; BSR set to: 4
  6407                           ;usb_device_hid.c: 223: { inPipes[0].pSrc.bRam = (uint8_t*)&idle_rate; inPipes[0].wCount
      +                          .Val = 1; inPipes[0].info.Val = 0x40 | 0x80 | 0x01; };
  6408  00140E  0E00               	movlw	high _idle_rate
  6409  001410  0100               	movlb	0	; () banked
  6410  001412  6F7B               	movwf	(_inPipes+1)& (0+255),b	;volatile
  6411  001414  0E4E               	movlw	low _idle_rate
  6412  001416  0100               	movlb	0	; () banked
  6413  001418  6F7A               	movwf	_inPipes& (0+255),b	;volatile
  6414                           
  6415                           ; BSR set to: 0
  6416  00141A  0E00               	movlw	0
  6417  00141C  0100               	movlb	0	; () banked
  6418  00141E  6F7F               	movwf	(_inPipes+5)& (0+255),b	;volatile
  6419  001420  0E01               	movlw	1
  6420  001422  0100               	movlb	0	; () banked
  6421  001424  6F7E               	movwf	(_inPipes+4)& (0+255),b	;volatile
  6422                           
  6423                           ; BSR set to: 0
  6424  001426  0EC1               	movlw	193
  6425  001428  D013               	goto	L22
  6426  00142A                     i2l3862:
  6427                           
  6428                           ;usb_device_hid.c: 229: inPipes[0].info.Val = 0x00 | 0x80;
  6429  00142A  0E80               	movlw	128
  6430  00142C  0100               	movlb	0	; () banked
  6431  00142E  6F7D               	movwf	(_inPipes+3)& (0+255),b	;volatile
  6432                           
  6433                           ; BSR set to: 0
  6434                           ;usb_device_hid.c: 230: idle_rate = ((USB_SETUP_SET_IDLE_RATE*)&SetupPkt)->duration;
  6435  001430  C423 F04E          	movff	1059,_idle_rate
  6436                           
  6437                           ;usb_device_hid.c: 231: ;
  6438                           ;usb_device_hid.c: 232: break;
  6439  001434  D02A               	goto	i2l611
  6440  001436                     i2l3866:
  6441                           
  6442                           ;usb_device_hid.c: 234: { inPipes[0].pSrc.bRam = (uint8_t*)&active_protocol; inPipes[0].
      +                          wCount.Val = 1; inPipes[0].info.Val = 0x00 | 0x80 | 0x01; };
  6443  001436  0E00               	movlw	high _active_protocol
  6444  001438  0100               	movlb	0	; () banked
  6445  00143A  6F7B               	movwf	(_inPipes+1)& (0+255),b	;volatile
  6446  00143C  0E4D               	movlw	low _active_protocol
  6447  00143E  0100               	movlb	0	; () banked
  6448  001440  6F7A               	movwf	_inPipes& (0+255),b	;volatile
  6449                           
  6450                           ; BSR set to: 0
  6451  001442  0E00               	movlw	0
  6452  001444  0100               	movlb	0	; () banked
  6453  001446  6F7F               	movwf	(_inPipes+5)& (0+255),b	;volatile
  6454  001448  0E01               	movlw	1
  6455  00144A  0100               	movlb	0	; () banked
  6456  00144C  6F7E               	movwf	(_inPipes+4)& (0+255),b	;volatile
  6457                           
  6458                           ; BSR set to: 0
  6459  00144E  0E81               	movlw	129
  6460  001450                     L22:
  6461  001450  0100               	movlb	0	; () banked
  6462  001452  6F7D               	movwf	(_inPipes+3)& (0+255),b	;volatile
  6463                           
  6464                           ;usb_device_hid.c: 238: break;
  6465  001454  D01A               	goto	i2l611
  6466  001456                     i2l3872:
  6467                           
  6468                           ;usb_device_hid.c: 240: inPipes[0].info.Val = 0x00 | 0x80;
  6469  001456  0E80               	movlw	128
  6470  001458  0100               	movlb	0	; () banked
  6471  00145A  6F7D               	movwf	(_inPipes+3)& (0+255),b	;volatile
  6472                           
  6473                           ; BSR set to: 0
  6474                           ;usb_device_hid.c: 241: active_protocol = ((USB_SETUP_SET_PROTOCOL*)&SetupPkt)->protocol
      +                          ;
  6475  00145C  C422 F04D          	movff	1058,_active_protocol
  6476                           
  6477                           ;usb_device_hid.c: 242: break;
  6478  001460  D014               	goto	i2l611
  6479  001462                     i2l3878:
  6480  001462  0104               	movlb	4	; () banked
  6481  001464  5121               	movf	33,w,b	;volatile
  6482                           
  6483                           ; Switch size 1, requested type "space"
  6484                           ; Number of cases is 6, Range of values is 1 to 11
  6485                           ; switch strategies available:
  6486                           ; Name         Instructions Cycles
  6487                           ; simple_byte           19    10 (average)
  6488                           ;	Chosen strategy is simple_byte
  6489  001466  0A01               	xorlw	1	; case 1
  6490  001468  B4D8               	btfsc	status,2,c
  6491  00146A  D00F               	goto	i2l611
  6492  00146C  0A03               	xorlw	3	; case 2
  6493  00146E  B4D8               	btfsc	status,2,c
  6494  001470  D7CE               	goto	i2l3856
  6495  001472  0A01               	xorlw	1	; case 3
  6496  001474  B4D8               	btfsc	status,2,c
  6497  001476  D7DF               	goto	i2l3866
  6498  001478  0A0A               	xorlw	10	; case 9
  6499  00147A  B4D8               	btfsc	status,2,c
  6500  00147C  D006               	goto	i2l611
  6501  00147E  0A03               	xorlw	3	; case 10
  6502  001480  B4D8               	btfsc	status,2,c
  6503  001482  D7D3               	goto	i2l3862
  6504  001484  0A01               	xorlw	1	; case 11
  6505  001486  B4D8               	btfsc	status,2,c
  6506  001488  D7E6               	goto	i2l3872
  6507  00148A                     i2l611:
  6508  00148A  0012               	return	
  6509  00148C                     __end_of_USBCheckHIDRequest:
  6510                           	opt stack 0
  6511                           pclatu	equ	0xFFB
  6512                           pclath	equ	0xFFA
  6513                           tblptru	equ	0xFF8
  6514                           tblptrh	equ	0xFF7
  6515                           tblptrl	equ	0xFF6
  6516                           tablat	equ	0xFF5
  6517                           prodh	equ	0xFF4
  6518                           prodl	equ	0xFF3
  6519                           intcon	equ	0xFF2
  6520                           postinc0	equ	0xFEE
  6521                           fsr0h	equ	0xFEA
  6522                           fsr0l	equ	0xFE9
  6523                           wreg	equ	0xFE8
  6524                           indf1	equ	0xFE7
  6525                           fsr1h	equ	0xFE2
  6526                           fsr1l	equ	0xFE1
  6527                           bsr	equ	0xFE0
  6528                           indf2	equ	0xFDF
  6529                           postinc2	equ	0xFDE
  6530                           postdec2	equ	0xFDD
  6531                           plusw2	equ	0xFDB
  6532                           fsr2h	equ	0xFDA
  6533                           fsr2l	equ	0xFD9
  6534                           status	equ	0xFD8
  6535                           
  6536 ;; *************** function _APP_USBCB_SOF_Handler *****************
  6537 ;; Defined at:
  6538 ;;		line 261 in file "../src/app_custom_hid.c"
  6539 ;; Parameters:    Size  Location     Type
  6540 ;;		None
  6541 ;; Auto vars:     Size  Location     Type
  6542 ;;		None
  6543 ;; Return value:  Size  Location     Type
  6544 ;;		None               void
  6545 ;; Registers used:
  6546 ;;		None
  6547 ;; Tracked objects:
  6548 ;;		On entry : 0/0
  6549 ;;		On exit  : 0/0
  6550 ;;		Unchanged: 0/0
  6551 ;; Data sizes:     COMRAM   BANK0   BANK1   BANK2   BANK3   BANK4   BANK5   BANK6   BANK7
  6552 ;;      Params:         0       0       0       0       0       0       0       0       0
  6553 ;;      Locals:         0       0       0       0       0       0       0       0       0
  6554 ;;      Temps:          0       0       0       0       0       0       0       0       0
  6555 ;;      Totals:         0       0       0       0       0       0       0       0       0
  6556 ;;Total ram usage:        0 bytes
  6557 ;; Hardware stack levels used:    1
  6558 ;; This function calls:
  6559 ;;		Nothing
  6560 ;; This function is called by:
  6561 ;;		_USER_USB_CALLBACK_EVENT_HANDLER
  6562 ;; This function uses a non-reentrant model
  6563 ;;
  6564                           
  6565                           	psect	text30
  6566  0022E2                     __ptext30:
  6567                           	opt stack 0
  6568  0022E2                     _APP_USBCB_SOF_Handler:
  6569                           	opt stack 23
  6570                           
  6571                           ;incstack = 0
  6572  0022E2  0012               	return	
  6573  0022E4                     __end_of_APP_USBCB_SOF_Handler:
  6574                           	opt stack 0
  6575                           pclatu	equ	0xFFB
  6576                           pclath	equ	0xFFA
  6577                           tblptru	equ	0xFF8
  6578                           tblptrh	equ	0xFF7
  6579                           tblptrl	equ	0xFF6
  6580                           tablat	equ	0xFF5
  6581                           prodh	equ	0xFF4
  6582                           prodl	equ	0xFF3
  6583                           intcon	equ	0xFF2
  6584                           postinc0	equ	0xFEE
  6585                           fsr0h	equ	0xFEA
  6586                           fsr0l	equ	0xFE9
  6587                           wreg	equ	0xFE8
  6588                           indf1	equ	0xFE7
  6589                           fsr1h	equ	0xFE2
  6590                           fsr1l	equ	0xFE1
  6591                           bsr	equ	0xFE0
  6592                           indf2	equ	0xFDF
  6593                           postinc2	equ	0xFDE
  6594                           postdec2	equ	0xFDD
  6595                           plusw2	equ	0xFDB
  6596                           fsr2h	equ	0xFDA
  6597                           fsr2l	equ	0xFD9
  6598                           status	equ	0xFD8
  6599                           
  6600 ;; *************** function _APP_USBCBWakeFromSuspend *****************
  6601 ;; Defined at:
  6602 ;;		line 229 in file "../src/app_custom_hid.c"
  6603 ;; Parameters:    Size  Location     Type
  6604 ;;		None
  6605 ;; Auto vars:     Size  Location     Type
  6606 ;;		None
  6607 ;; Return value:  Size  Location     Type
  6608 ;;		None               void
  6609 ;; Registers used:
  6610 ;;		None
  6611 ;; Tracked objects:
  6612 ;;		On entry : 0/0
  6613 ;;		On exit  : 0/0
  6614 ;;		Unchanged: 0/0
  6615 ;; Data sizes:     COMRAM   BANK0   BANK1   BANK2   BANK3   BANK4   BANK5   BANK6   BANK7
  6616 ;;      Params:         0       0       0       0       0       0       0       0       0
  6617 ;;      Locals:         0       0       0       0       0       0       0       0       0
  6618 ;;      Temps:          0       0       0       0       0       0       0       0       0
  6619 ;;      Totals:         0       0       0       0       0       0       0       0       0
  6620 ;;Total ram usage:        0 bytes
  6621 ;; Hardware stack levels used:    1
  6622 ;; This function calls:
  6623 ;;		Nothing
  6624 ;; This function is called by:
  6625 ;;		_USER_USB_CALLBACK_EVENT_HANDLER
  6626 ;;		_USBCBSendResume
  6627 ;; This function uses a non-reentrant model
  6628 ;;
  6629                           
  6630                           	psect	text31
  6631  0022E4                     __ptext31:
  6632                           	opt stack 0
  6633  0022E4                     _APP_USBCBWakeFromSuspend:
  6634                           	opt stack 23
  6635                           
  6636                           ;incstack = 0
  6637  0022E4  0012               	return	
  6638  0022E6                     __end_of_APP_USBCBWakeFromSuspend:
  6639                           	opt stack 0
  6640                           pclatu	equ	0xFFB
  6641                           pclath	equ	0xFFA
  6642                           tblptru	equ	0xFF8
  6643                           tblptrh	equ	0xFF7
  6644                           tblptrl	equ	0xFF6
  6645                           tablat	equ	0xFF5
  6646                           prodh	equ	0xFF4
  6647                           prodl	equ	0xFF3
  6648                           intcon	equ	0xFF2
  6649                           postinc0	equ	0xFEE
  6650                           fsr0h	equ	0xFEA
  6651                           fsr0l	equ	0xFE9
  6652                           wreg	equ	0xFE8
  6653                           indf1	equ	0xFE7
  6654                           fsr1h	equ	0xFE2
  6655                           fsr1l	equ	0xFE1
  6656                           bsr	equ	0xFE0
  6657                           indf2	equ	0xFDF
  6658                           postinc2	equ	0xFDE
  6659                           postdec2	equ	0xFDD
  6660                           plusw2	equ	0xFDB
  6661                           fsr2h	equ	0xFDA
  6662                           fsr2l	equ	0xFD9
  6663                           status	equ	0xFD8
  6664                           
  6665 ;; *************** function _APP_USBCBSuspend *****************
  6666 ;; Defined at:
  6667 ;;		line 187 in file "../src/app_custom_hid.c"
  6668 ;; Parameters:    Size  Location     Type
  6669 ;;		None
  6670 ;; Auto vars:     Size  Location     Type
  6671 ;;		None
  6672 ;; Return value:  Size  Location     Type
  6673 ;;		None               void
  6674 ;; Registers used:
  6675 ;;		None
  6676 ;; Tracked objects:
  6677 ;;		On entry : 0/0
  6678 ;;		On exit  : 0/0
  6679 ;;		Unchanged: 0/0
  6680 ;; Data sizes:     COMRAM   BANK0   BANK1   BANK2   BANK3   BANK4   BANK5   BANK6   BANK7
  6681 ;;      Params:         0       0       0       0       0       0       0       0       0
  6682 ;;      Locals:         0       0       0       0       0       0       0       0       0
  6683 ;;      Temps:          0       0       0       0       0       0       0       0       0
  6684 ;;      Totals:         0       0       0       0       0       0       0       0       0
  6685 ;;Total ram usage:        0 bytes
  6686 ;; Hardware stack levels used:    1
  6687 ;; This function calls:
  6688 ;;		Nothing
  6689 ;; This function is called by:
  6690 ;;		_USER_USB_CALLBACK_EVENT_HANDLER
  6691 ;; This function uses a non-reentrant model
  6692 ;;
  6693                           
  6694                           	psect	text32
  6695  0022E6                     __ptext32:
  6696                           	opt stack 0
  6697  0022E6                     _APP_USBCBSuspend:
  6698                           	opt stack 23
  6699                           
  6700                           ;incstack = 0
  6701  0022E6  0012               	return	
  6702  0022E8                     __end_of_APP_USBCBSuspend:
  6703                           	opt stack 0
  6704                           pclatu	equ	0xFFB
  6705                           pclath	equ	0xFFA
  6706                           tblptru	equ	0xFF8
  6707                           tblptrh	equ	0xFF7
  6708                           tblptrl	equ	0xFF6
  6709                           tablat	equ	0xFF5
  6710                           prodh	equ	0xFF4
  6711                           prodl	equ	0xFF3
  6712                           intcon	equ	0xFF2
  6713                           postinc0	equ	0xFEE
  6714                           fsr0h	equ	0xFEA
  6715                           fsr0l	equ	0xFE9
  6716                           wreg	equ	0xFE8
  6717                           indf1	equ	0xFE7
  6718                           fsr1h	equ	0xFE2
  6719                           fsr1l	equ	0xFE1
  6720                           bsr	equ	0xFE0
  6721                           indf2	equ	0xFDF
  6722                           postinc2	equ	0xFDE
  6723                           postdec2	equ	0xFDD
  6724                           plusw2	equ	0xFDB
  6725                           fsr2h	equ	0xFDA
  6726                           fsr2l	equ	0xFD9
  6727                           status	equ	0xFD8
  6728                           
  6729 ;; *************** function _APP_USBCBErrorHandler *****************
  6730 ;; Defined at:
  6731 ;;		line 284 in file "../src/app_custom_hid.c"
  6732 ;; Parameters:    Size  Location     Type
  6733 ;;		None
  6734 ;; Auto vars:     Size  Location     Type
  6735 ;;		None
  6736 ;; Return value:  Size  Location     Type
  6737 ;;		None               void
  6738 ;; Registers used:
  6739 ;;		None
  6740 ;; Tracked objects:
  6741 ;;		On entry : 0/0
  6742 ;;		On exit  : 0/0
  6743 ;;		Unchanged: 0/0
  6744 ;; Data sizes:     COMRAM   BANK0   BANK1   BANK2   BANK3   BANK4   BANK5   BANK6   BANK7
  6745 ;;      Params:         0       0       0       0       0       0       0       0       0
  6746 ;;      Locals:         0       0       0       0       0       0       0       0       0
  6747 ;;      Temps:          0       0       0       0       0       0       0       0       0
  6748 ;;      Totals:         0       0       0       0       0       0       0       0       0
  6749 ;;Total ram usage:        0 bytes
  6750 ;; Hardware stack levels used:    1
  6751 ;; This function calls:
  6752 ;;		Nothing
  6753 ;; This function is called by:
  6754 ;;		_USER_USB_CALLBACK_EVENT_HANDLER
  6755 ;; This function uses a non-reentrant model
  6756 ;;
  6757                           
  6758                           	psect	text33
  6759  0022E8                     __ptext33:
  6760                           	opt stack 0
  6761  0022E8                     _APP_USBCBErrorHandler:
  6762                           	opt stack 23
  6763                           
  6764                           ;incstack = 0
  6765  0022E8  0012               	return	
  6766  0022EA                     __end_of_APP_USBCBErrorHandler:
  6767                           	opt stack 0
  6768                           pclatu	equ	0xFFB
  6769                           pclath	equ	0xFFA
  6770                           tblptru	equ	0xFF8
  6771                           tblptrh	equ	0xFF7
  6772                           tblptrl	equ	0xFF6
  6773                           tablat	equ	0xFF5
  6774                           prodh	equ	0xFF4
  6775                           prodl	equ	0xFF3
  6776                           intcon	equ	0xFF2
  6777                           postinc0	equ	0xFEE
  6778                           fsr0h	equ	0xFEA
  6779                           fsr0l	equ	0xFE9
  6780                           wreg	equ	0xFE8
  6781                           indf1	equ	0xFE7
  6782                           fsr1h	equ	0xFE2
  6783                           fsr1l	equ	0xFE1
  6784                           bsr	equ	0xFE0
  6785                           indf2	equ	0xFDF
  6786                           postinc2	equ	0xFDE
  6787                           postdec2	equ	0xFDD
  6788                           plusw2	equ	0xFDB
  6789                           fsr2h	equ	0xFDA
  6790                           fsr2l	equ	0xFD9
  6791                           status	equ	0xFD8
  6792                           
  6793 ;; *************** function _APP_CustomHIDInitialize *****************
  6794 ;; Defined at:
  6795 ;;		line 42 in file "../src/app_custom_hid.c"
  6796 ;; Parameters:    Size  Location     Type
  6797 ;;		None
  6798 ;; Auto vars:     Size  Location     Type
  6799 ;;		None
  6800 ;; Return value:  Size  Location     Type
  6801 ;;		None               void
  6802 ;; Registers used:
  6803 ;;		wreg, fsr2l, fsr2h, status,2, status,0, prodl, prodh, cstack
  6804 ;; Tracked objects:
  6805 ;;		On entry : 0/0
  6806 ;;		On exit  : 0/0
  6807 ;;		Unchanged: 0/0
  6808 ;; Data sizes:     COMRAM   BANK0   BANK1   BANK2   BANK3   BANK4   BANK5   BANK6   BANK7
  6809 ;;      Params:         0       0       0       0       0       0       0       0       0
  6810 ;;      Locals:         0       0       0       0       0       0       0       0       0
  6811 ;;      Temps:          0       0       0       0       0       0       0       0       0
  6812 ;;      Totals:         0       0       0       0       0       0       0       0       0
  6813 ;;Total ram usage:        0 bytes
  6814 ;; Hardware stack levels used:    1
  6815 ;; Hardware stack levels required when called:    2
  6816 ;; This function calls:
  6817 ;;		_USBEnableEndpoint
  6818 ;;		i2_USBTransferOnePacket
  6819 ;; This function is called by:
  6820 ;;		_USER_USB_CALLBACK_EVENT_HANDLER
  6821 ;; This function uses a non-reentrant model
  6822 ;;
  6823                           
  6824                           	psect	text34
  6825  002126                     __ptext34:
  6826                           	opt stack 0
  6827  002126                     _APP_CustomHIDInitialize:
  6828                           	opt stack 21
  6829                           
  6830                           ;app_custom_hid.c: 45: USBInHandle = 0;
  6831                           
  6832                           ;incstack = 0
  6833  002126  0E00               	movlw	0
  6834  002128  0100               	movlb	0	; () banked
  6835  00212A  6F71               	movwf	(_USBInHandle+1)& (0+255),b
  6836  00212C  0E00               	movlw	0
  6837  00212E  0100               	movlb	0	; () banked
  6838  002130  6F70               	movwf	_USBInHandle& (0+255),b
  6839                           
  6840                           ; BSR set to: 0
  6841                           ;app_custom_hid.c: 49: USBEnableEndpoint(1, 0x02|0x04|0x10|0x08);
  6842  002132  0E1E               	movlw	30
  6843  002134  6E1A               	movwf	USBEnableEndpoint@options,c
  6844  002136  0E01               	movlw	1
  6845  002138  EC50  F010         	call	_USBEnableEndpoint
  6846                           
  6847                           ;app_custom_hid.c: 53: USBOutHandle = (volatile void*)USBTransferOnePacket(1,0,(uint8_t*
      +                          )&ReceivedDataBuffer,64);
  6848  00213C  0E00               	movlw	0
  6849  00213E  6E12               	movwf	i2USBTransferOnePacket@dir,c
  6850  002140  0105               	movlb	5	; () banked
  6851  002142  0E05               	movlw	5
  6852  002144  6E14               	movwf	i2USBTransferOnePacket@data+1,c
  6853  002146  0105               	movlb	5	; () banked
  6854  002148  0E00               	movlw	0
  6855  00214A  6E13               	movwf	i2USBTransferOnePacket@data,c
  6856  00214C  0E40               	movlw	64
  6857  00214E  6E15               	movwf	i2USBTransferOnePacket@len,c
  6858  002150  0E01               	movlw	1
  6859  002152  EC0B  F00D         	call	i2_USBTransferOnePacket
  6860  002156  C012  F072         	movff	?i2_USBTransferOnePacket,_USBOutHandle
  6861  00215A  C013  F073         	movff	?i2_USBTransferOnePacket+1,_USBOutHandle+1
  6862  00215E  0012               	return	
  6863  002160                     __end_of_APP_CustomHIDInitialize:
  6864                           	opt stack 0
  6865                           pclatu	equ	0xFFB
  6866                           pclath	equ	0xFFA
  6867                           tblptru	equ	0xFF8
  6868                           tblptrh	equ	0xFF7
  6869                           tblptrl	equ	0xFF6
  6870                           tablat	equ	0xFF5
  6871                           prodh	equ	0xFF4
  6872                           prodl	equ	0xFF3
  6873                           intcon	equ	0xFF2
  6874                           postinc0	equ	0xFEE
  6875                           fsr0h	equ	0xFEA
  6876                           fsr0l	equ	0xFE9
  6877                           wreg	equ	0xFE8
  6878                           indf1	equ	0xFE7
  6879                           fsr1h	equ	0xFE2
  6880                           fsr1l	equ	0xFE1
  6881                           bsr	equ	0xFE0
  6882                           indf2	equ	0xFDF
  6883                           postinc2	equ	0xFDE
  6884                           postdec2	equ	0xFDD
  6885                           plusw2	equ	0xFDB
  6886                           fsr2h	equ	0xFDA
  6887                           fsr2l	equ	0xFD9
  6888                           status	equ	0xFD8
  6889                           
  6890 ;; *************** function i2_USBTransferOnePacket *****************
  6891 ;; Defined at:
  6892 ;;		line 995 in file "../src/usb/src/usb_device.c"
  6893 ;; Parameters:    Size  Location     Type
  6894 ;;  ep              1    wreg     unsigned char 
  6895 ;;  dir             1   17[COMRAM] unsigned char 
  6896 ;;  data            2   18[COMRAM] PTR unsigned char 
  6897 ;;		 -> ToSendDataBuffer(64), ReceivedDataBuffer(64), 
  6898 ;;  len             1   20[COMRAM] unsigned char 
  6899 ;; Auto vars:     Size  Location     Type
  6900 ;;  ep              1   21[COMRAM] unsigned char 
  6901 ;;  USBTransferO    2   22[COMRAM] PTR volatile struct __BD
  6902 ;;		 -> BDT(32), NULL(0), 
  6903 ;; Return value:  Size  Location     Type
  6904 ;;                  2   17[COMRAM] PTR void 
  6905 ;; Registers used:
  6906 ;;		wreg, fsr2l, fsr2h, status,2, status,0, prodl, prodh
  6907 ;; Tracked objects:
  6908 ;;		On entry : 0/0
  6909 ;;		On exit  : 0/0
  6910 ;;		Unchanged: 0/0
  6911 ;; Data sizes:     COMRAM   BANK0   BANK1   BANK2   BANK3   BANK4   BANK5   BANK6   BANK7
  6912 ;;      Params:         4       0       0       0       0       0       0       0       0
  6913 ;;      Locals:         3       0       0       0       0       0       0       0       0
  6914 ;;      Temps:          0       0       0       0       0       0       0       0       0
  6915 ;;      Totals:         7       0       0       0       0       0       0       0       0
  6916 ;;Total ram usage:        7 bytes
  6917 ;; Hardware stack levels used:    1
  6918 ;; This function calls:
  6919 ;;		Nothing
  6920 ;; This function is called by:
  6921 ;;		_APP_CustomHIDInitialize
  6922 ;; This function uses a non-reentrant model
  6923 ;;
  6924                           
  6925                           	psect	text35
  6926  001A16                     __ptext35:
  6927                           	opt stack 0
  6928  001A16                     i2_USBTransferOnePacket:
  6929                           	opt stack 22
  6930                           
  6931                           ;incstack = 0
  6932                           ;i2USBTransferOnePacket@ep stored from wreg
  6933  001A16  6E16               	movwf	i2USBTransferOnePacket@ep,c
  6934                           
  6935                           ;usb_device.c: 997: volatile BDT_ENTRY* handle;
  6936                           ;usb_device.c: 1000: if(dir != 0)
  6937  001A18  5012               	movf	i2USBTransferOnePacket@dir,w,c
  6938  001A1A  B4D8               	btfsc	status,2,c
  6939  001A1C  D009               	goto	i2l3790
  6940                           
  6941                           ;usb_device.c: 1001: {
  6942                           ;usb_device.c: 1003: handle = pBDTEntryIn[ep];
  6943  001A1E  5016               	movf	i2USBTransferOnePacket@ep,w,c
  6944  001A20  0D02               	mullw	2
  6945  001A22  0100               	movlb	0	; () banked
  6946  001A24  0E68               	movlw	low _pBDTEntryIn
  6947  001A26  24F3               	addwf	prodl,w,c
  6948  001A28  6ED9               	movwf	fsr2l,c
  6949  001A2A  0100               	movlb	0	; () banked
  6950  001A2C  0E00               	movlw	high _pBDTEntryIn
  6951  001A2E  D008               	goto	L23
  6952  001A30                     i2l3790:
  6953                           
  6954                           ;usb_device.c: 1005: else
  6955                           ;usb_device.c: 1006: {
  6956                           ;usb_device.c: 1008: handle = pBDTEntryOut[ep];
  6957  001A30  5016               	movf	i2USBTransferOnePacket@ep,w,c
  6958  001A32  0D02               	mullw	2
  6959  001A34  0100               	movlb	0	; () banked
  6960  001A36  0E6C               	movlw	low _pBDTEntryOut
  6961  001A38  24F3               	addwf	prodl,w,c
  6962  001A3A  6ED9               	movwf	fsr2l,c
  6963  001A3C  0100               	movlb	0	; () banked
  6964  001A3E  0E00               	movlw	high _pBDTEntryOut
  6965  001A40                     L23:
  6966  001A40  20F4               	addwfc	prodh,w,c
  6967  001A42  6EDA               	movwf	fsr2h,c
  6968  001A44  CFDE F017          	movff	postinc2,i2USBTransferOnePacket@handle
  6969  001A48  CFDD F018          	movff	postdec2,i2USBTransferOnePacket@handle+1
  6970                           
  6971                           ; BSR set to: 0
  6972                           ;usb_device.c: 1009: }
  6973                           ;usb_device.c: 1013: if(handle == 0)
  6974                           
  6975                           ; BSR set to: 0
  6976  001A4C  5018               	movf	i2USBTransferOnePacket@handle+1,w,c
  6977  001A4E  1017               	iorwf	i2USBTransferOnePacket@handle,w,c
  6978  001A50  A4D8               	btfss	status,2,c
  6979  001A52  D005               	goto	i2l3798
  6980                           
  6981                           ; BSR set to: 0
  6982                           ;usb_device.c: 1014: {
  6983                           ;usb_device.c: 1015: return 0;
  6984  001A54  0E00               	movlw	0
  6985  001A56  6E13               	movwf	?i2_USBTransferOnePacket+1,c
  6986  001A58  0E00               	movlw	0
  6987  001A5A  6E12               	movwf	?i2_USBTransferOnePacket,c
  6988  001A5C  D040               	goto	i2l384
  6989  001A5E                     i2l3798:
  6990                           
  6991                           ; BSR set to: 0
  6992                           ;usb_device.c: 1016: }
  6993                           ;usb_device.c: 1029: handle->ADR = ((uint16_t)(data));
  6994  001A5E  EE20 F002          	lfsr	2,2
  6995  001A62  5017               	movf	i2USBTransferOnePacket@handle,w,c
  6996  001A64  26D9               	addwf	fsr2l,f,c
  6997  001A66  5018               	movf	i2USBTransferOnePacket@handle+1,w,c
  6998  001A68  22DA               	addwfc	fsr2h,f,c
  6999  001A6A  C013  FFDE         	movff	i2USBTransferOnePacket@data,postinc2
  7000  001A6E  C014  FFDD         	movff	i2USBTransferOnePacket@data+1,postdec2
  7001                           
  7002                           ;usb_device.c: 1030: handle->CNT = len;
  7003  001A72  EE20 F001          	lfsr	2,1
  7004  001A76  5017               	movf	i2USBTransferOnePacket@handle,w,c
  7005  001A78  26D9               	addwf	fsr2l,f,c
  7006  001A7A  5018               	movf	i2USBTransferOnePacket@handle+1,w,c
  7007  001A7C  22DA               	addwfc	fsr2h,f,c
  7008  001A7E  C015  FFDF         	movff	i2USBTransferOnePacket@len,indf2
  7009                           
  7010                           ; BSR set to: 0
  7011                           ;usb_device.c: 1031: handle->STAT.Val &= 0x40;
  7012  001A82  C017  FFD9         	movff	i2USBTransferOnePacket@handle,fsr2l
  7013  001A86  C018  FFDA         	movff	i2USBTransferOnePacket@handle+1,fsr2h
  7014  001A8A  0E40               	movlw	64
  7015  001A8C  16DF               	andwf	indf2,f,c
  7016                           
  7017                           ; BSR set to: 0
  7018                           ;usb_device.c: 1032: handle->STAT.Val |= (0x08 & 0x08);
  7019  001A8E  C017  FFD9         	movff	i2USBTransferOnePacket@handle,fsr2l
  7020  001A92  C018  FFDA         	movff	i2USBTransferOnePacket@handle+1,fsr2h
  7021  001A96  0E00               	movlw	0
  7022  001A98  86DB               	bsf	plusw2,3,c
  7023                           
  7024                           ; BSR set to: 0
  7025                           ;usb_device.c: 1033: handle->STAT.Val |= 0x80;
  7026  001A9A  C017  FFD9         	movff	i2USBTransferOnePacket@handle,fsr2l
  7027  001A9E  C018  FFDA         	movff	i2USBTransferOnePacket@handle+1,fsr2h
  7028  001AA2  0E00               	movlw	0
  7029  001AA4  8EDB               	bsf	plusw2,7,c
  7030                           
  7031                           ; BSR set to: 0
  7032                           ;usb_device.c: 1036: if(dir != 0)
  7033  001AA6  5012               	movf	i2USBTransferOnePacket@dir,w,c
  7034  001AA8  B4D8               	btfsc	status,2,c
  7035  001AAA  D009               	goto	i2l3810
  7036                           
  7037                           ; BSR set to: 0
  7038                           ;usb_device.c: 1037: {
  7039                           ;usb_device.c: 1039: {((uint8_t_VAL*)&pBDTEntryIn[ep])->Val ^= 0x0004;};
  7040  001AAC  5016               	movf	i2USBTransferOnePacket@ep,w,c
  7041  001AAE  0D02               	mullw	2
  7042  001AB0  0100               	movlb	0	; () banked
  7043  001AB2  0E68               	movlw	low _pBDTEntryIn
  7044  001AB4  24F3               	addwf	prodl,w,c
  7045  001AB6  6ED9               	movwf	fsr2l,c
  7046  001AB8  0100               	movlb	0	; () banked
  7047  001ABA  0E00               	movlw	high _pBDTEntryIn
  7048  001ABC  D008               	goto	L24
  7049  001ABE                     i2l3810:
  7050                           
  7051                           ; BSR set to: 0
  7052                           ;usb_device.c: 1041: else
  7053                           ;usb_device.c: 1042: {
  7054                           ;usb_device.c: 1044: {((uint8_t_VAL*)&pBDTEntryOut[ep])->Val ^= 0x0004;};
  7055  001ABE  5016               	movf	i2USBTransferOnePacket@ep,w,c
  7056  001AC0  0D02               	mullw	2
  7057  001AC2  0100               	movlb	0	; () banked
  7058  001AC4  0E6C               	movlw	low _pBDTEntryOut
  7059  001AC6  24F3               	addwf	prodl,w,c
  7060  001AC8  6ED9               	movwf	fsr2l,c
  7061  001ACA  0100               	movlb	0	; () banked
  7062  001ACC  0E00               	movlw	high _pBDTEntryOut
  7063  001ACE                     L24:
  7064  001ACE  20F4               	addwfc	prodh,w,c
  7065  001AD0  6EDA               	movwf	fsr2h,c
  7066  001AD2  0E04               	movlw	4
  7067  001AD4  1ADF               	xorwf	indf2,f,c
  7068                           
  7069                           ; BSR set to: 0
  7070                           ;usb_device.c: 1045: }
  7071                           ;usb_device.c: 1046: return (void*)handle;
  7072                           
  7073                           ; BSR set to: 0
  7074  001AD6  C018  F013         	movff	i2USBTransferOnePacket@handle+1,?i2_USBTransferOnePacket+1
  7075  001ADA  C017  F012         	movff	i2USBTransferOnePacket@handle,?i2_USBTransferOnePacket
  7076  001ADE                     i2l384:
  7077                           
  7078                           ; BSR set to: 0
  7079  001ADE  0012               	return	
  7080  001AE0                     __end_ofi2_USBTransferOnePacket:
  7081                           	opt stack 0
  7082                           pclatu	equ	0xFFB
  7083                           pclath	equ	0xFFA
  7084                           tblptru	equ	0xFF8
  7085                           tblptrh	equ	0xFF7
  7086                           tblptrl	equ	0xFF6
  7087                           tablat	equ	0xFF5
  7088                           prodh	equ	0xFF4
  7089                           prodl	equ	0xFF3
  7090                           intcon	equ	0xFF2
  7091                           postinc0	equ	0xFEE
  7092                           fsr0h	equ	0xFEA
  7093                           fsr0l	equ	0xFE9
  7094                           wreg	equ	0xFE8
  7095                           indf1	equ	0xFE7
  7096                           fsr1h	equ	0xFE2
  7097                           fsr1l	equ	0xFE1
  7098                           bsr	equ	0xFE0
  7099                           indf2	equ	0xFDF
  7100                           postinc2	equ	0xFDE
  7101                           postdec2	equ	0xFDD
  7102                           plusw2	equ	0xFDB
  7103                           fsr2h	equ	0xFDA
  7104                           fsr2l	equ	0xFD9
  7105                           status	equ	0xFD8
  7106                           
  7107 ;; *************** function _USBEnableEndpoint *****************
  7108 ;; Defined at:
  7109 ;;		line 878 in file "../src/usb/src/usb_device.c"
  7110 ;; Parameters:    Size  Location     Type
  7111 ;;  ep              1    wreg     unsigned char 
  7112 ;;  options         1   25[COMRAM] unsigned char 
  7113 ;; Auto vars:     Size  Location     Type
  7114 ;;  ep              1   30[COMRAM] unsigned char 
  7115 ;;  p               2   28[COMRAM] PTR unsigned char 
  7116 ;;		 -> UEP0(1), 
  7117 ;; Return value:  Size  Location     Type
  7118 ;;		None               void
  7119 ;; Registers used:
  7120 ;;		wreg, fsr2l, fsr2h, status,2, status,0, prodl, prodh, cstack
  7121 ;; Tracked objects:
  7122 ;;		On entry : 0/0
  7123 ;;		On exit  : 0/0
  7124 ;;		Unchanged: 0/0
  7125 ;; Data sizes:     COMRAM   BANK0   BANK1   BANK2   BANK3   BANK4   BANK5   BANK6   BANK7
  7126 ;;      Params:         1       0       0       0       0       0       0       0       0
  7127 ;;      Locals:         3       0       0       0       0       0       0       0       0
  7128 ;;      Temps:          2       0       0       0       0       0       0       0       0
  7129 ;;      Totals:         6       0       0       0       0       0       0       0       0
  7130 ;;Total ram usage:        6 bytes
  7131 ;; Hardware stack levels used:    1
  7132 ;; Hardware stack levels required when called:    1
  7133 ;; This function calls:
  7134 ;;		_USBConfigureEndpoint
  7135 ;; This function is called by:
  7136 ;;		_APP_CustomHIDInitialize
  7137 ;; This function uses a non-reentrant model
  7138 ;;
  7139                           
  7140                           	psect	text36
  7141  0020A0                     __ptext36:
  7142                           	opt stack 0
  7143  0020A0                     _USBEnableEndpoint:
  7144                           	opt stack 21
  7145                           
  7146                           ; BSR set to: 0
  7147                           ;incstack = 0
  7148                           ;USBEnableEndpoint@ep stored from wreg
  7149  0020A0  6E1F               	movwf	USBEnableEndpoint@ep,c
  7150                           
  7151                           ;usb_device.c: 880: unsigned char* p;
  7152                           ;usb_device.c: 884: if(options & 0x04)
  7153  0020A2  A41A               	btfss	USBEnableEndpoint@options,2,c
  7154  0020A4  D005               	goto	i2l3778
  7155                           
  7156                           ;usb_device.c: 885: {
  7157                           ;usb_device.c: 886: USBConfigureEndpoint(ep, 0);
  7158  0020A6  0E00               	movlw	0
  7159  0020A8  6E12               	movwf	USBConfigureEndpoint@direction,c
  7160  0020AA  501F               	movf	USBEnableEndpoint@ep,w,c
  7161  0020AC  ECD9  F00E         	call	_USBConfigureEndpoint
  7162  0020B0                     i2l3778:
  7163                           
  7164                           ;usb_device.c: 887: }
  7165                           ;usb_device.c: 888: if(options & 0x02)
  7166  0020B0  A21A               	btfss	USBEnableEndpoint@options,1,c
  7167  0020B2  D005               	goto	i2l3782
  7168                           
  7169                           ;usb_device.c: 889: {
  7170                           ;usb_device.c: 890: USBConfigureEndpoint(ep, 1);
  7171  0020B4  0E01               	movlw	1
  7172  0020B6  6E12               	movwf	USBConfigureEndpoint@direction,c
  7173  0020B8  501F               	movf	USBEnableEndpoint@ep,w,c
  7174  0020BA  ECD9  F00E         	call	_USBConfigureEndpoint
  7175  0020BE                     i2l3782:
  7176                           
  7177                           ;usb_device.c: 891: }
  7178                           ;usb_device.c: 899: p = (unsigned char*)(&UEP0+ep);
  7179  0020BE  501F               	movf	USBEnableEndpoint@ep,w,c
  7180  0020C0  0D01               	mullw	1
  7181  0020C2  0E70               	movlw	112	;volatile
  7182  0020C4  6E1B               	movwf	??_USBEnableEndpoint& (0+255),c
  7183  0020C6  0E0F               	movlw	15	;volatile
  7184  0020C8  6E1C               	movwf	(??_USBEnableEndpoint+1)& (0+255),c
  7185  0020CA  50F3               	movf	prodl,w,c
  7186  0020CC  261B               	addwf	??_USBEnableEndpoint,f,c
  7187  0020CE  50F4               	movf	prodh,w,c
  7188  0020D0  221C               	addwfc	??_USBEnableEndpoint+1,f,c
  7189  0020D2  C01B  F01D         	movff	??_USBEnableEndpoint,USBEnableEndpoint@p
  7190  0020D6  C01C  F01E         	movff	??_USBEnableEndpoint+1,USBEnableEndpoint@p+1
  7191                           
  7192                           ;usb_device.c: 901: *p = options;
  7193  0020DA  C01D  FFD9         	movff	USBEnableEndpoint@p,fsr2l
  7194  0020DE  C01E  FFDA         	movff	USBEnableEndpoint@p+1,fsr2h
  7195  0020E2  C01A  FFDF         	movff	USBEnableEndpoint@options,indf2
  7196  0020E6  0012               	return	
  7197  0020E8                     __end_of_USBEnableEndpoint:
  7198                           	opt stack 0
  7199                           pclatu	equ	0xFFB
  7200                           pclath	equ	0xFFA
  7201                           tblptru	equ	0xFF8
  7202                           tblptrh	equ	0xFF7
  7203                           tblptrl	equ	0xFF6
  7204                           tablat	equ	0xFF5
  7205                           prodh	equ	0xFF4
  7206                           prodl	equ	0xFF3
  7207                           intcon	equ	0xFF2
  7208                           postinc0	equ	0xFEE
  7209                           fsr0h	equ	0xFEA
  7210                           fsr0l	equ	0xFE9
  7211                           wreg	equ	0xFE8
  7212                           indf1	equ	0xFE7
  7213                           fsr1h	equ	0xFE2
  7214                           fsr1l	equ	0xFE1
  7215                           bsr	equ	0xFE0
  7216                           indf2	equ	0xFDF
  7217                           postinc2	equ	0xFDE
  7218                           postdec2	equ	0xFDD
  7219                           plusw2	equ	0xFDB
  7220                           fsr2h	equ	0xFDA
  7221                           fsr2l	equ	0xFD9
  7222                           status	equ	0xFD8
  7223                           
  7224 ;; *************** function _USBConfigureEndpoint *****************
  7225 ;; Defined at:
  7226 ;;		line 1543 in file "../src/usb/src/usb_device.c"
  7227 ;; Parameters:    Size  Location     Type
  7228 ;;  EPNum           1    wreg     unsigned char 
  7229 ;;  direction       1   17[COMRAM] unsigned char 
  7230 ;; Auto vars:     Size  Location     Type
  7231 ;;  EPNum           1   22[COMRAM] unsigned char 
  7232 ;;  handle          2   23[COMRAM] PTR volatile struct __BD
  7233 ;;		 -> BDT(32), 
  7234 ;; Return value:  Size  Location     Type
  7235 ;;		None               void
  7236 ;; Registers used:
  7237 ;;		wreg, fsr2l, fsr2h, status,2, status,0, prodl, prodh
  7238 ;; Tracked objects:
  7239 ;;		On entry : 0/0
  7240 ;;		On exit  : 0/0
  7241 ;;		Unchanged: 0/0
  7242 ;; Data sizes:     COMRAM   BANK0   BANK1   BANK2   BANK3   BANK4   BANK5   BANK6   BANK7
  7243 ;;      Params:         1       0       0       0       0       0       0       0       0
  7244 ;;      Locals:         3       0       0       0       0       0       0       0       0
  7245 ;;      Temps:          4       0       0       0       0       0       0       0       0
  7246 ;;      Totals:         8       0       0       0       0       0       0       0       0
  7247 ;;Total ram usage:        8 bytes
  7248 ;; Hardware stack levels used:    1
  7249 ;; This function calls:
  7250 ;;		Nothing
  7251 ;; This function is called by:
  7252 ;;		_USBEnableEndpoint
  7253 ;; This function uses a non-reentrant model
  7254 ;;
  7255                           
  7256                           	psect	text37
  7257  001DB2                     __ptext37:
  7258                           	opt stack 0
  7259  001DB2                     _USBConfigureEndpoint:
  7260                           	opt stack 21
  7261                           
  7262                           ;incstack = 0
  7263                           ;USBConfigureEndpoint@EPNum stored from wreg
  7264  001DB2  6E17               	movwf	USBConfigureEndpoint@EPNum,c
  7265                           
  7266                           ;usb_device.c: 1545: volatile BDT_ENTRY* handle;
  7267                           ;usb_device.c: 1549: handle = (volatile BDT_ENTRY*)&BDT[0];
  7268  001DB4  0104               	movlb	4	; () banked
  7269  001DB6  0E04               	movlw	4	;volatile
  7270  001DB8  6E19               	movwf	USBConfigureEndpoint@handle+1,c
  7271  001DBA  0104               	movlb	4	; () banked
  7272  001DBC  0E00               	movlw	0	;volatile
  7273  001DBE  6E18               	movwf	USBConfigureEndpoint@handle,c
  7274                           
  7275                           ; BSR set to: 4
  7276                           ;usb_device.c: 1550: handle += (4*EPNum+2*direction+0u);
  7277  001DC0  5012               	movf	USBConfigureEndpoint@direction,w,c
  7278  001DC2  6E13               	movwf	??_USBConfigureEndpoint& (0+255),c
  7279  001DC4  6A14               	clrf	(??_USBConfigureEndpoint+1)& (0+255),c
  7280  001DC6  90D8               	bcf	status,0,c
  7281  001DC8  3613               	rlcf	??_USBConfigureEndpoint,f,c
  7282  001DCA  3614               	rlcf	??_USBConfigureEndpoint+1,f,c
  7283  001DCC  5017               	movf	USBConfigureEndpoint@EPNum,w,c
  7284  001DCE  6E15               	movwf	(??_USBConfigureEndpoint+2)& (0+255),c
  7285  001DD0  6A16               	clrf	(??_USBConfigureEndpoint+3)& (0+255),c
  7286  001DD2  90D8               	bcf	status,0,c
  7287  001DD4  3615               	rlcf	??_USBConfigureEndpoint+2,f,c
  7288  001DD6  3616               	rlcf	??_USBConfigureEndpoint+3,f,c
  7289  001DD8  90D8               	bcf	status,0,c
  7290  001DDA  3615               	rlcf	??_USBConfigureEndpoint+2,f,c
  7291  001DDC  3616               	rlcf	??_USBConfigureEndpoint+3,f,c
  7292  001DDE  5013               	movf	??_USBConfigureEndpoint,w,c
  7293  001DE0  2615               	addwf	??_USBConfigureEndpoint+2,f,c
  7294  001DE2  5014               	movf	??_USBConfigureEndpoint+1,w,c
  7295  001DE4  2216               	addwfc	??_USBConfigureEndpoint+3,f,c
  7296  001DE6  90D8               	bcf	status,0,c
  7297  001DE8  3615               	rlcf	??_USBConfigureEndpoint+2,f,c
  7298  001DEA  3616               	rlcf	??_USBConfigureEndpoint+3,f,c
  7299  001DEC  90D8               	bcf	status,0,c
  7300  001DEE  3615               	rlcf	??_USBConfigureEndpoint+2,f,c
  7301  001DF0  3616               	rlcf	??_USBConfigureEndpoint+3,f,c
  7302  001DF2  5015               	movf	??_USBConfigureEndpoint+2,w,c
  7303  001DF4  2618               	addwf	USBConfigureEndpoint@handle,f,c
  7304  001DF6  5016               	movf	??_USBConfigureEndpoint+3,w,c
  7305  001DF8  2219               	addwfc	USBConfigureEndpoint@handle+1,f,c
  7306                           
  7307                           ; BSR set to: 4
  7308                           ;usb_device.c: 1552: handle->STAT.UOWN = 0;
  7309  001DFA  C018  FFD9         	movff	USBConfigureEndpoint@handle,fsr2l
  7310  001DFE  C019  FFDA         	movff	USBConfigureEndpoint@handle+1,fsr2h
  7311  001E02  9EDF               	bcf	indf2,7,c
  7312                           
  7313                           ; BSR set to: 4
  7314                           ;usb_device.c: 1557: if(direction == 0)
  7315  001E04  6612               	tstfsz	USBConfigureEndpoint@direction,c
  7316  001E06  D009               	goto	i2l3768
  7317                           
  7318                           ; BSR set to: 4
  7319                           ;usb_device.c: 1558: {
  7320                           ;usb_device.c: 1559: pBDTEntryOut[EPNum] = handle;
  7321  001E08  5017               	movf	USBConfigureEndpoint@EPNum,w,c
  7322  001E0A  0D02               	mullw	2
  7323  001E0C  0100               	movlb	0	; () banked
  7324  001E0E  0E6C               	movlw	low _pBDTEntryOut
  7325  001E10  24F3               	addwf	prodl,w,c
  7326  001E12  6ED9               	movwf	fsr2l,c
  7327  001E14  0100               	movlb	0	; () banked
  7328  001E16  0E00               	movlw	high _pBDTEntryOut
  7329  001E18  D008               	goto	L25
  7330  001E1A                     i2l3768:
  7331                           
  7332                           ;usb_device.c: 1561: else
  7333                           ;usb_device.c: 1562: {
  7334                           ;usb_device.c: 1563: pBDTEntryIn[EPNum] = handle;
  7335  001E1A  5017               	movf	USBConfigureEndpoint@EPNum,w,c
  7336  001E1C  0D02               	mullw	2
  7337  001E1E  0100               	movlb	0	; () banked
  7338  001E20  0E68               	movlw	low _pBDTEntryIn
  7339  001E22  24F3               	addwf	prodl,w,c
  7340  001E24  6ED9               	movwf	fsr2l,c
  7341  001E26  0100               	movlb	0	; () banked
  7342  001E28  0E00               	movlw	high _pBDTEntryIn
  7343  001E2A                     L25:
  7344  001E2A  20F4               	addwfc	prodh,w,c
  7345  001E2C  6EDA               	movwf	fsr2h,c
  7346  001E2E  C018  FFDE         	movff	USBConfigureEndpoint@handle,postinc2
  7347  001E32  C019  FFDD         	movff	USBConfigureEndpoint@handle+1,postdec2
  7348                           
  7349                           ; BSR set to: 0
  7350                           ;usb_device.c: 1564: }
  7351                           ;usb_device.c: 1567: handle->STAT.DTS = 0;
  7352                           
  7353                           ; BSR set to: 0
  7354  001E36  C018  FFD9         	movff	USBConfigureEndpoint@handle,fsr2l
  7355  001E3A  C019  FFDA         	movff	USBConfigureEndpoint@handle+1,fsr2h
  7356  001E3E  9CDF               	bcf	indf2,6,c
  7357                           
  7358                           ; BSR set to: 0
  7359                           ;usb_device.c: 1568: (handle+1)->STAT.DTS = 1;
  7360  001E40  EE20 F004          	lfsr	2,4
  7361  001E44  5018               	movf	USBConfigureEndpoint@handle,w,c
  7362  001E46  26D9               	addwf	fsr2l,f,c
  7363  001E48  5019               	movf	USBConfigureEndpoint@handle+1,w,c
  7364  001E4A  22DA               	addwfc	fsr2h,f,c
  7365  001E4C  8CDF               	bsf	indf2,6,c
  7366                           
  7367                           ; BSR set to: 0
  7368  001E4E  0012               	return	
  7369  001E50                     __end_of_USBConfigureEndpoint:
  7370                           	opt stack 0
  7371                           pclatu	equ	0xFFB
  7372                           pclath	equ	0xFFA
  7373                           tblptru	equ	0xFF8
  7374                           tblptrh	equ	0xFF7
  7375                           tblptrl	equ	0xFF6
  7376                           tablat	equ	0xFF5
  7377                           prodh	equ	0xFF4
  7378                           prodl	equ	0xFF3
  7379                           intcon	equ	0xFF2
  7380                           postinc0	equ	0xFEE
  7381                           fsr0h	equ	0xFEA
  7382                           fsr0l	equ	0xFE9
  7383                           wreg	equ	0xFE8
  7384                           indf1	equ	0xFE7
  7385                           fsr1h	equ	0xFE2
  7386                           fsr1l	equ	0xFE1
  7387                           bsr	equ	0xFE0
  7388                           indf2	equ	0xFDF
  7389                           postinc2	equ	0xFDE
  7390                           postdec2	equ	0xFDD
  7391                           plusw2	equ	0xFDB
  7392                           fsr2h	equ	0xFDA
  7393                           fsr2l	equ	0xFD9
  7394                           status	equ	0xFD8
  7395                           
  7396 ;; *************** function _USBCtrlTrfOutHandler *****************
  7397 ;; Defined at:
  7398 ;;		line 2541 in file "../src/usb/src/usb_device.c"
  7399 ;; Parameters:    Size  Location     Type
  7400 ;;		None
  7401 ;; Auto vars:     Size  Location     Type
  7402 ;;		None
  7403 ;; Return value:  Size  Location     Type
  7404 ;;		None               void
  7405 ;; Registers used:
  7406 ;;		wreg, fsr1l, fsr1h, fsr2l, fsr2h, status,2, status,0, prodl, prodh, cstack
  7407 ;; Tracked objects:
  7408 ;;		On entry : 0/0
  7409 ;;		On exit  : 0/0
  7410 ;;		Unchanged: 0/0
  7411 ;; Data sizes:     COMRAM   BANK0   BANK1   BANK2   BANK3   BANK4   BANK5   BANK6   BANK7
  7412 ;;      Params:         0       0       0       0       0       0       0       0       0
  7413 ;;      Locals:         0       0       0       0       0       0       0       0       0
  7414 ;;      Temps:          0       0       0       0       0       0       0       0       0
  7415 ;;      Totals:         0       0       0       0       0       0       0       0       0
  7416 ;;Total ram usage:        0 bytes
  7417 ;; Hardware stack levels used:    1
  7418 ;; Hardware stack levels required when called:    2
  7419 ;; This function calls:
  7420 ;;		_USBCtrlTrfRxService
  7421 ;; This function is called by:
  7422 ;;		_USBCtrlEPService
  7423 ;; This function uses a non-reentrant model
  7424 ;;
  7425                           
  7426                           	psect	text38
  7427  002046                     __ptext38:
  7428                           	opt stack 0
  7429  002046                     _USBCtrlTrfOutHandler:
  7430                           	opt stack 21
  7431                           
  7432                           ;usb_device.c: 2543: if(controlTransferState == 2)
  7433                           
  7434                           ; BSR set to: 0
  7435                           ;incstack = 0
  7436  002046  5047               	movf	_controlTransferState,w,c	;volatile
  7437  002048  0A02               	xorlw	2
  7438  00204A  A4D8               	btfss	status,2,c
  7439  00204C  D003               	goto	i2l4360
  7440                           
  7441                           ;usb_device.c: 2544: {
  7442                           ;usb_device.c: 2545: USBCtrlTrfRxService();
  7443  00204E  EC3F  F009         	call	_USBCtrlTrfRxService	;wreg free
  7444                           
  7445                           ;usb_device.c: 2546: }
  7446  002052  D025               	goto	i2l535
  7447  002054                     i2l4360:
  7448                           
  7449                           ;usb_device.c: 2547: else
  7450                           ;usb_device.c: 2548: {
  7451                           ;usb_device.c: 2551: controlTransferState = 0;
  7452  002054  0E00               	movlw	0
  7453  002056  6E47               	movwf	_controlTransferState,c	;volatile
  7454                           
  7455                           ;usb_device.c: 2558: if(BothEP0OutUOWNsSet == 0)
  7456  002058  663E               	tstfsz	_BothEP0OutUOWNsSet,c	;volatile
  7457  00205A  D01F               	goto	i2l4370
  7458                           
  7459                           ;usb_device.c: 2559: {
  7460                           ;usb_device.c: 2560: pBDTEntryEP0OutNext->CNT = 8;
  7461  00205C  EE20 F001          	lfsr	2,1
  7462  002060  503A               	movf	_pBDTEntryEP0OutNext,w,c
  7463  002062  26D9               	addwf	fsr2l,f,c
  7464  002064  503B               	movf	_pBDTEntryEP0OutNext+1,w,c
  7465  002066  22DA               	addwfc	fsr2h,f,c
  7466  002068  0E08               	movlw	8
  7467  00206A  6EDF               	movwf	indf2,c
  7468                           
  7469                           ;usb_device.c: 2561: pBDTEntryEP0OutNext->ADR = ((uint16_t)(&SetupPkt));
  7470  00206C  EE20 F002          	lfsr	2,2
  7471  002070  503A               	movf	_pBDTEntryEP0OutNext,w,c
  7472  002072  26D9               	addwf	fsr2l,f,c
  7473  002074  503B               	movf	_pBDTEntryEP0OutNext+1,w,c
  7474  002076  22DA               	addwfc	fsr2h,f,c
  7475  002078  0E20               	movlw	32
  7476  00207A  6EDE               	movwf	postinc2,c
  7477  00207C  0E04               	movlw	4
  7478  00207E  6EDD               	movwf	postdec2,c
  7479                           
  7480                           ;usb_device.c: 2562: pBDTEntryEP0OutNext->STAT.Val = 0x00|(0x08 & 0x08)|0x04;
  7481  002080  C03A  FFD9         	movff	_pBDTEntryEP0OutNext,fsr2l
  7482  002084  C03B  FFDA         	movff	_pBDTEntryEP0OutNext+1,fsr2h
  7483  002088  0E0C               	movlw	12
  7484  00208A  6EDF               	movwf	indf2,c
  7485                           
  7486                           ;usb_device.c: 2563: pBDTEntryEP0OutNext->STAT.Val |= 0x80;
  7487  00208C  C03A  FFD9         	movff	_pBDTEntryEP0OutNext,fsr2l
  7488  002090  C03B  FFDA         	movff	_pBDTEntryEP0OutNext+1,fsr2h
  7489  002094  0E00               	movlw	0
  7490  002096  8EDB               	bsf	plusw2,7,c
  7491                           
  7492                           ;usb_device.c: 2564: }
  7493  002098  D002               	goto	i2l535
  7494  00209A                     i2l4370:
  7495                           
  7496                           ;usb_device.c: 2565: else
  7497                           ;usb_device.c: 2566: {
  7498                           ;usb_device.c: 2567: BothEP0OutUOWNsSet = 0;
  7499  00209A  0E00               	movlw	0
  7500  00209C  6E3E               	movwf	_BothEP0OutUOWNsSet,c	;volatile
  7501  00209E                     i2l535:
  7502  00209E  0012               	return	
  7503  0020A0                     __end_of_USBCtrlTrfOutHandler:
  7504                           	opt stack 0
  7505                           pclatu	equ	0xFFB
  7506                           pclath	equ	0xFFA
  7507                           tblptru	equ	0xFF8
  7508                           tblptrh	equ	0xFF7
  7509                           tblptrl	equ	0xFF6
  7510                           tablat	equ	0xFF5
  7511                           prodh	equ	0xFF4
  7512                           prodl	equ	0xFF3
  7513                           intcon	equ	0xFF2
  7514                           postinc0	equ	0xFEE
  7515                           fsr0h	equ	0xFEA
  7516                           fsr0l	equ	0xFE9
  7517                           wreg	equ	0xFE8
  7518                           indf1	equ	0xFE7
  7519                           fsr1h	equ	0xFE2
  7520                           fsr1l	equ	0xFE1
  7521                           bsr	equ	0xFE0
  7522                           indf2	equ	0xFDF
  7523                           postinc2	equ	0xFDE
  7524                           postdec2	equ	0xFDD
  7525                           plusw2	equ	0xFDB
  7526                           fsr2h	equ	0xFDA
  7527                           fsr2l	equ	0xFD9
  7528                           status	equ	0xFD8
  7529                           
  7530 ;; *************** function _USBCtrlTrfRxService *****************
  7531 ;; Defined at:
  7532 ;;		line 1852 in file "../src/usb/src/usb_device.c"
  7533 ;; Parameters:    Size  Location     Type
  7534 ;;		None
  7535 ;; Auto vars:     Size  Location     Type
  7536 ;;  byteToRead      1   18[COMRAM] unsigned char 
  7537 ;;  i               1   17[COMRAM] unsigned char 
  7538 ;; Return value:  Size  Location     Type
  7539 ;;		None               void
  7540 ;; Registers used:
  7541 ;;		wreg, fsr1l, fsr1h, fsr2l, fsr2h, status,2, status,0, prodl, prodh, cstack
  7542 ;; Tracked objects:
  7543 ;;		On entry : 0/0
  7544 ;;		On exit  : 0/0
  7545 ;;		Unchanged: 0/0
  7546 ;; Data sizes:     COMRAM   BANK0   BANK1   BANK2   BANK3   BANK4   BANK5   BANK6   BANK7
  7547 ;;      Params:         0       0       0       0       0       0       0       0       0
  7548 ;;      Locals:         2       0       0       0       0       0       0       0       0
  7549 ;;      Temps:          0       0       0       0       0       0       0       0       0
  7550 ;;      Totals:         2       0       0       0       0       0       0       0       0
  7551 ;;Total ram usage:        2 bytes
  7552 ;; Hardware stack levels used:    1
  7553 ;; Hardware stack levels required when called:    1
  7554 ;; This function calls:
  7555 ;;		_USBCtrlEPAllowStatusStage
  7556 ;; This function is called by:
  7557 ;;		_USBCtrlTrfOutHandler
  7558 ;; This function uses a non-reentrant model
  7559 ;;
  7560                           
  7561                           	psect	text39
  7562  00127E                     __ptext39:
  7563                           	opt stack 0
  7564  00127E                     _USBCtrlTrfRxService:
  7565                           	opt stack 21
  7566                           
  7567                           ;usb_device.c: 1854: uint8_t byteToRead;
  7568                           ;usb_device.c: 1855: uint8_t i;
  7569                           ;usb_device.c: 1859: byteToRead = pBDTEntryEP0OutCurrent->CNT;
  7570                           
  7571                           ;incstack = 0
  7572  00127E  EE20 F001          	lfsr	2,1
  7573  001282  5038               	movf	_pBDTEntryEP0OutCurrent,w,c
  7574  001284  26D9               	addwf	fsr2l,f,c
  7575  001286  5039               	movf	_pBDTEntryEP0OutCurrent+1,w,c
  7576  001288  22DA               	addwfc	fsr2h,f,c
  7577  00128A  50DF               	movf	indf2,w,c
  7578  00128C  6E13               	movwf	USBCtrlTrfRxService@byteToRead,c
  7579                           
  7580                           ;usb_device.c: 1865: if(byteToRead > outPipes[0].wCount.Val)
  7581  00128E  5013               	movf	USBCtrlTrfRxService@byteToRead,w,c
  7582  001290  0100               	movlb	0	; () banked
  7583  001292  5D64               	subwf	(_outPipes+4)& (0+255),w,b	;volatile
  7584  001294  0E00               	movlw	0
  7585  001296  0100               	movlb	0	; () banked
  7586  001298  5965               	subwfb	(_outPipes+5)& (0+255),w,b	;volatile
  7587  00129A  A0D8               	btfss	status,0,c
  7588                           
  7589                           ; BSR set to: 0
  7590                           ;usb_device.c: 1866: {
  7591                           ;usb_device.c: 1867: byteToRead = outPipes[0].wCount.Val;
  7592  00129C  C064  F013         	movff	_outPipes+4,USBCtrlTrfRxService@byteToRead	;volatile
  7593                           
  7594                           ; BSR set to: 0
  7595                           ;usb_device.c: 1868: }
  7596                           ;usb_device.c: 1870: outPipes[0].wCount.Val -= byteToRead;
  7597                           
  7598                           ; BSR set to: 0
  7599  0012A0  5013               	movf	USBCtrlTrfRxService@byteToRead,w,c
  7600  0012A2  0100               	movlb	0	; () banked
  7601  0012A4  5F64               	subwf	(_outPipes+4)& (0+255),f,b	;volatile
  7602  0012A6  0E00               	movlw	0
  7603  0012A8  0100               	movlb	0	; () banked
  7604  0012AA  5B65               	subwfb	(_outPipes+5)& (0+255),f,b	;volatile
  7605                           
  7606                           ; BSR set to: 0
  7607                           ;usb_device.c: 1874: for(i=0;i<byteToRead;i++)
  7608  0012AC  0E00               	movlw	0
  7609  0012AE  6E12               	movwf	USBCtrlTrfRxService@i,c
  7610  0012B0  D014               	goto	i2l4266
  7611  0012B2                     i2l4260:
  7612                           
  7613                           ; BSR set to: 0
  7614                           ;usb_device.c: 1875: {
  7615                           ;usb_device.c: 1876: *outPipes[0].pDst.bRam++ = CtrlTrfData[i];
  7616  0012B2  5012               	movf	USBCtrlTrfRxService@i,w,c
  7617  0012B4  0D01               	mullw	1
  7618  0012B6  0104               	movlb	4	; () banked
  7619  0012B8  0E28               	movlw	40	;volatile
  7620  0012BA  24F3               	addwf	prodl,w,c
  7621  0012BC  6ED9               	movwf	fsr2l,c
  7622  0012BE  0104               	movlb	4	; () banked
  7623  0012C0  0E04               	movlw	4	;volatile
  7624  0012C2  20F4               	addwfc	prodh,w,c
  7625  0012C4  6EDA               	movwf	fsr2h,c
  7626  0012C6  C060  FFE1         	movff	_outPipes,fsr1l	;volatile
  7627  0012CA  C061  FFE2         	movff	_outPipes+1,fsr1h	;volatile
  7628  0012CE  CFDF FFE7          	movff	indf2,indf1
  7629                           
  7630                           ; BSR set to: 4
  7631  0012D2  0100               	movlb	0	; () banked
  7632  0012D4  4B60               	infsnz	_outPipes& (0+255),f,b	;volatile
  7633  0012D6  2B61               	incf	(_outPipes+1)& (0+255),f,b	;volatile
  7634                           
  7635                           ; BSR set to: 0
  7636  0012D8  2A12               	incf	USBCtrlTrfRxService@i,f,c
  7637  0012DA                     i2l4266:
  7638                           
  7639                           ; BSR set to: 0
  7640  0012DA  5013               	movf	USBCtrlTrfRxService@byteToRead,w,c
  7641  0012DC  5C12               	subwf	USBCtrlTrfRxService@i,w,c
  7642  0012DE  A0D8               	btfss	status,0,c
  7643  0012E0  D7E8               	goto	i2l4260
  7644                           
  7645                           ; BSR set to: 0
  7646                           ;usb_device.c: 1877: }
  7647                           ;usb_device.c: 1881: if(outPipes[0].wCount.Val > 0)
  7648                           
  7649                           ; BSR set to: 0
  7650  0012E2  0100               	movlb	0	; () banked
  7651  0012E4  5165               	movf	(_outPipes+5)& (0+255),w,b	;volatile
  7652  0012E6  1164               	iorwf	(_outPipes+4)& (0+255),w,b	;volatile
  7653  0012E8  B4D8               	btfsc	status,2,c
  7654  0012EA  D02B               	goto	i2l4282
  7655                           
  7656                           ; BSR set to: 0
  7657                           ;usb_device.c: 1882: {
  7658                           ;usb_device.c: 1883: pBDTEntryEP0OutNext->CNT = 8;
  7659  0012EC  EE20 F001          	lfsr	2,1
  7660  0012F0  503A               	movf	_pBDTEntryEP0OutNext,w,c
  7661  0012F2  26D9               	addwf	fsr2l,f,c
  7662  0012F4  503B               	movf	_pBDTEntryEP0OutNext+1,w,c
  7663  0012F6  22DA               	addwfc	fsr2h,f,c
  7664  0012F8  0E08               	movlw	8
  7665  0012FA  6EDF               	movwf	indf2,c
  7666                           
  7667                           ;usb_device.c: 1884: pBDTEntryEP0OutNext->ADR = ((uint16_t)(&CtrlTrfData));
  7668  0012FC  EE20 F002          	lfsr	2,2
  7669  001300  503A               	movf	_pBDTEntryEP0OutNext,w,c
  7670  001302  26D9               	addwf	fsr2l,f,c
  7671  001304  503B               	movf	_pBDTEntryEP0OutNext+1,w,c
  7672  001306  22DA               	addwfc	fsr2h,f,c
  7673  001308  0E28               	movlw	40
  7674  00130A  6EDE               	movwf	postinc2,c
  7675  00130C  0E04               	movlw	4
  7676  00130E  6EDD               	movwf	postdec2,c
  7677                           
  7678                           ; BSR set to: 0
  7679                           ;usb_device.c: 1885: if(pBDTEntryEP0OutCurrent->STAT.DTS == 0)
  7680  001310  C038  FFD9         	movff	_pBDTEntryEP0OutCurrent,fsr2l
  7681  001314  C039  FFDA         	movff	_pBDTEntryEP0OutCurrent+1,fsr2h
  7682  001318  BCDF               	btfsc	indf2,6,c
  7683  00131A  D006               	goto	i2l4278
  7684                           
  7685                           ; BSR set to: 0
  7686                           ;usb_device.c: 1886: {
  7687                           ;usb_device.c: 1887: pBDTEntryEP0OutNext->STAT.Val = 0x40|(0x08 & 0x08);
  7688  00131C  C03A  FFD9         	movff	_pBDTEntryEP0OutNext,fsr2l
  7689  001320  C03B  FFDA         	movff	_pBDTEntryEP0OutNext+1,fsr2h
  7690  001324  0E48               	movlw	72
  7691  001326  D005               	goto	L26
  7692  001328                     i2l4278:
  7693                           
  7694                           ; BSR set to: 0
  7695                           ;usb_device.c: 1890: else
  7696                           ;usb_device.c: 1891: {
  7697                           ;usb_device.c: 1892: pBDTEntryEP0OutNext->STAT.Val = 0x00|(0x08 & 0x08);
  7698  001328  C03A  FFD9         	movff	_pBDTEntryEP0OutNext,fsr2l
  7699  00132C  C03B  FFDA         	movff	_pBDTEntryEP0OutNext+1,fsr2h
  7700  001330  0E08               	movlw	8
  7701  001332                     L26:
  7702  001332  6EDF               	movwf	indf2,c
  7703                           
  7704                           ; BSR set to: 0
  7705                           ;usb_device.c: 1893: pBDTEntryEP0OutNext->STAT.Val |= 0x80;
  7706  001334  C03A  FFD9         	movff	_pBDTEntryEP0OutNext,fsr2l
  7707  001338  C03B  FFDA         	movff	_pBDTEntryEP0OutNext+1,fsr2h
  7708  00133C  0E00               	movlw	0
  7709  00133E  8EDB               	bsf	plusw2,7,c
  7710  001340  D024               	goto	i2l466
  7711  001342                     i2l4282:
  7712                           
  7713                           ; BSR set to: 0
  7714                           ;usb_device.c: 1896: else
  7715                           ;usb_device.c: 1897: {
  7716                           ;usb_device.c: 1901: pBDTEntryEP0OutNext->CNT = 8;
  7717  001342  EE20 F001          	lfsr	2,1
  7718  001346  503A               	movf	_pBDTEntryEP0OutNext,w,c
  7719  001348  26D9               	addwf	fsr2l,f,c
  7720  00134A  503B               	movf	_pBDTEntryEP0OutNext+1,w,c
  7721  00134C  22DA               	addwfc	fsr2h,f,c
  7722  00134E  0E08               	movlw	8
  7723  001350  6EDF               	movwf	indf2,c
  7724                           
  7725                           ;usb_device.c: 1902: pBDTEntryEP0OutNext->ADR = ((uint16_t)(&SetupPkt));
  7726  001352  EE20 F002          	lfsr	2,2
  7727  001356  503A               	movf	_pBDTEntryEP0OutNext,w,c
  7728  001358  26D9               	addwf	fsr2l,f,c
  7729  00135A  503B               	movf	_pBDTEntryEP0OutNext+1,w,c
  7730  00135C  22DA               	addwfc	fsr2h,f,c
  7731  00135E  0E20               	movlw	32
  7732  001360  6EDE               	movwf	postinc2,c
  7733  001362  0E04               	movlw	4
  7734  001364  6EDD               	movwf	postdec2,c
  7735                           
  7736                           ; BSR set to: 0
  7737                           ;usb_device.c: 1906: pBDTEntryEP0OutNext->STAT.Val = 0x04;
  7738  001366  C03A  FFD9         	movff	_pBDTEntryEP0OutNext,fsr2l
  7739  00136A  C03B  FFDA         	movff	_pBDTEntryEP0OutNext+1,fsr2h
  7740  00136E  0E04               	movlw	4
  7741  001370  6EDF               	movwf	indf2,c
  7742                           
  7743                           ; BSR set to: 0
  7744                           ;usb_device.c: 1907: pBDTEntryEP0OutNext->STAT.Val |= 0x80;
  7745  001372  C03A  FFD9         	movff	_pBDTEntryEP0OutNext,fsr2l
  7746  001376  C03B  FFDA         	movff	_pBDTEntryEP0OutNext+1,fsr2h
  7747  00137A  0E00               	movlw	0
  7748  00137C  8EDB               	bsf	plusw2,7,c
  7749                           
  7750                           ; BSR set to: 0
  7751                           ;usb_device.c: 1926: }
  7752                           ;usb_device.c: 1927: outPipes[0].info.bits.busy = 0;
  7753                           
  7754                           ; BSR set to: 0
  7755                           ;usb_device.c: 1915: {
  7756                           ;usb_device.c: 1921: outPipes[0].pFunc();
  7757  00137E  0100               	movlb	0	; () banked
  7758  001380  9F63               	bcf	(_outPipes+3)& (0+255),7,b	;volatile
  7759                           
  7760                           ;usb_device.c: 1941: if(USBDeferStatusStagePacket == 0)
  7761  001382  6643               	tstfsz	_USBDeferStatusStagePacket,c	;volatile
  7762  001384  D002               	goto	i2l466
  7763                           
  7764                           ; BSR set to: 0
  7765                           ;usb_device.c: 1942: {
  7766                           ;usb_device.c: 1943: USBCtrlEPAllowStatusStage();
  7767  001386  ECD3  F00D         	call	_USBCtrlEPAllowStatusStage	;wreg free
  7768  00138A                     i2l466:
  7769  00138A  0012               	return	
  7770  00138C                     __end_of_USBCtrlTrfRxService:
  7771                           	opt stack 0
  7772                           pclatu	equ	0xFFB
  7773                           pclath	equ	0xFFA
  7774                           tblptru	equ	0xFF8
  7775                           tblptrh	equ	0xFF7
  7776                           tblptrl	equ	0xFF6
  7777                           tablat	equ	0xFF5
  7778                           prodh	equ	0xFF4
  7779                           prodl	equ	0xFF3
  7780                           intcon	equ	0xFF2
  7781                           postinc0	equ	0xFEE
  7782                           fsr0h	equ	0xFEA
  7783                           fsr0l	equ	0xFE9
  7784                           wreg	equ	0xFE8
  7785                           indf1	equ	0xFE7
  7786                           fsr1h	equ	0xFE2
  7787                           fsr1l	equ	0xFE1
  7788                           bsr	equ	0xFE0
  7789                           indf2	equ	0xFDF
  7790                           postinc2	equ	0xFDE
  7791                           postdec2	equ	0xFDD
  7792                           plusw2	equ	0xFDB
  7793                           fsr2h	equ	0xFDA
  7794                           fsr2l	equ	0xFD9
  7795                           status	equ	0xFD8
  7796                           
  7797 ;; *************** function _USBCtrlEPAllowStatusStage *****************
  7798 ;; Defined at:
  7799 ;;		line 1416 in file "../src/usb/src/usb_device.c"
  7800 ;; Parameters:    Size  Location     Type
  7801 ;;		None
  7802 ;; Auto vars:     Size  Location     Type
  7803 ;;		None
  7804 ;; Return value:  Size  Location     Type
  7805 ;;		None               void
  7806 ;; Registers used:
  7807 ;;		wreg, fsr2l, fsr2h, status,2, status,0
  7808 ;; Tracked objects:
  7809 ;;		On entry : 0/0
  7810 ;;		On exit  : 0/0
  7811 ;;		Unchanged: 0/0
  7812 ;; Data sizes:     COMRAM   BANK0   BANK1   BANK2   BANK3   BANK4   BANK5   BANK6   BANK7
  7813 ;;      Params:         0       0       0       0       0       0       0       0       0
  7814 ;;      Locals:         0       0       0       0       0       0       0       0       0
  7815 ;;      Temps:          0       0       0       0       0       0       0       0       0
  7816 ;;      Totals:         0       0       0       0       0       0       0       0       0
  7817 ;;Total ram usage:        0 bytes
  7818 ;; Hardware stack levels used:    1
  7819 ;; This function calls:
  7820 ;;		Nothing
  7821 ;; This function is called by:
  7822 ;;		_USBDeviceTasks
  7823 ;;		_USBCtrlEPServiceComplete
  7824 ;;		_USBCtrlTrfRxService
  7825 ;; This function uses a non-reentrant model
  7826 ;;
  7827                           
  7828                           	psect	text40
  7829  001BA6                     __ptext40:
  7830                           	opt stack 0
  7831  001BA6                     _USBCtrlEPAllowStatusStage:
  7832                           	opt stack 21
  7833                           
  7834                           ;usb_device.c: 1423: if(USBStatusStageEnabledFlag1 == 0)
  7835                           
  7836                           ;incstack = 0
  7837  001BA6  6644               	tstfsz	_USBStatusStageEnabledFlag1,c	;volatile
  7838  001BA8  D05F               	goto	i2l414
  7839                           
  7840                           ;usb_device.c: 1424: {
  7841                           ;usb_device.c: 1425: USBStatusStageEnabledFlag1 = 1;
  7842  001BAA  0E01               	movlw	1
  7843  001BAC  6E44               	movwf	_USBStatusStageEnabledFlag1,c	;volatile
  7844                           
  7845                           ;usb_device.c: 1426: if(USBStatusStageEnabledFlag2 == 0)
  7846  001BAE  6645               	tstfsz	_USBStatusStageEnabledFlag2,c	;volatile
  7847  001BB0  D05B               	goto	i2l414
  7848                           
  7849                           ;usb_device.c: 1427: {
  7850                           ;usb_device.c: 1428: USBStatusStageEnabledFlag2 = 1;
  7851  001BB2  0E01               	movlw	1
  7852  001BB4  6E45               	movwf	_USBStatusStageEnabledFlag2,c	;volatile
  7853                           
  7854                           ;usb_device.c: 1432: if(controlTransferState == 2)
  7855  001BB6  5047               	movf	_controlTransferState,w,c	;volatile
  7856  001BB8  0A02               	xorlw	2
  7857  001BBA  A4D8               	btfss	status,2,c
  7858  001BBC  D018               	goto	i2l3972
  7859                           
  7860                           ;usb_device.c: 1433: {
  7861                           ;usb_device.c: 1434: pBDTEntryIn[0]->CNT = 0;
  7862  001BBE  0100               	movlb	0	; () banked
  7863  001BC0  EE20 F001          	lfsr	2,1
  7864  001BC4  0100               	movlb	0	; () banked
  7865  001BC6  5168               	movf	_pBDTEntryIn& (0+255),w,b
  7866  001BC8  26D9               	addwf	fsr2l,f,c
  7867  001BCA  0100               	movlb	0	; () banked
  7868  001BCC  5169               	movf	(_pBDTEntryIn+1)& (0+255),w,b
  7869  001BCE  22DA               	addwfc	fsr2h,f,c
  7870  001BD0  0E00               	movlw	0
  7871  001BD2  6EDF               	movwf	indf2,c
  7872                           
  7873                           ; BSR set to: 0
  7874                           ;usb_device.c: 1435: pBDTEntryIn[0]->STAT.Val = 0x40|(0x08 & 0x08);
  7875  001BD4  C068  FFD9         	movff	_pBDTEntryIn,fsr2l
  7876  001BD8  C069  FFDA         	movff	_pBDTEntryIn+1,fsr2h
  7877  001BDC  0E48               	movlw	72
  7878  001BDE  6EDF               	movwf	indf2,c
  7879                           
  7880                           ; BSR set to: 0
  7881                           ;usb_device.c: 1436: pBDTEntryIn[0]->STAT.Val |= 0x80;
  7882  001BE0  C068  FFD9         	movff	_pBDTEntryIn,fsr2l
  7883  001BE4  C069  FFDA         	movff	_pBDTEntryIn+1,fsr2h
  7884  001BE8  0E00               	movlw	0
  7885  001BEA  8EDB               	bsf	plusw2,7,c
  7886                           
  7887                           ;usb_device.c: 1437: }
  7888  001BEC  D03D               	goto	i2l414
  7889  001BEE                     i2l3972:
  7890                           
  7891                           ;usb_device.c: 1438: else if(controlTransferState == 1)
  7892  001BEE  0447               	decf	_controlTransferState,w,c	;volatile
  7893  001BF0  A4D8               	btfss	status,2,c
  7894  001BF2  D03A               	goto	i2l414
  7895                           
  7896                           ;usb_device.c: 1439: {
  7897                           ;usb_device.c: 1440: BothEP0OutUOWNsSet = 0;
  7898  001BF4  0E00               	movlw	0
  7899  001BF6  6E3E               	movwf	_BothEP0OutUOWNsSet,c	;volatile
  7900                           
  7901                           ;usb_device.c: 1445: pBDTEntryEP0OutCurrent->CNT = 8;
  7902  001BF8  EE20 F001          	lfsr	2,1
  7903  001BFC  5038               	movf	_pBDTEntryEP0OutCurrent,w,c
  7904  001BFE  26D9               	addwf	fsr2l,f,c
  7905  001C00  5039               	movf	_pBDTEntryEP0OutCurrent+1,w,c
  7906  001C02  22DA               	addwfc	fsr2h,f,c
  7907  001C04  0E08               	movlw	8
  7908  001C06  6EDF               	movwf	indf2,c
  7909                           
  7910                           ;usb_device.c: 1446: pBDTEntryEP0OutCurrent->ADR = ((uint16_t)(&SetupPkt));
  7911  001C08  EE20 F002          	lfsr	2,2
  7912  001C0C  5038               	movf	_pBDTEntryEP0OutCurrent,w,c
  7913  001C0E  26D9               	addwf	fsr2l,f,c
  7914  001C10  5039               	movf	_pBDTEntryEP0OutCurrent+1,w,c
  7915  001C12  22DA               	addwfc	fsr2h,f,c
  7916  001C14  0E20               	movlw	32
  7917  001C16  6EDE               	movwf	postinc2,c
  7918  001C18  0E04               	movlw	4
  7919  001C1A  6EDD               	movwf	postdec2,c
  7920                           
  7921                           ;usb_device.c: 1447: pBDTEntryEP0OutCurrent->STAT.Val = 0x04;
  7922  001C1C  C038  FFD9         	movff	_pBDTEntryEP0OutCurrent,fsr2l
  7923  001C20  C039  FFDA         	movff	_pBDTEntryEP0OutCurrent+1,fsr2h
  7924  001C24  0E04               	movlw	4
  7925  001C26  6EDF               	movwf	indf2,c
  7926                           
  7927                           ;usb_device.c: 1448: pBDTEntryEP0OutCurrent->STAT.Val |= 0x80;
  7928  001C28  C038  FFD9         	movff	_pBDTEntryEP0OutCurrent,fsr2l
  7929  001C2C  C039  FFDA         	movff	_pBDTEntryEP0OutCurrent+1,fsr2h
  7930  001C30  0E00               	movlw	0
  7931  001C32  8EDB               	bsf	plusw2,7,c
  7932                           
  7933                           ;usb_device.c: 1449: BothEP0OutUOWNsSet = 1;
  7934  001C34  0E01               	movlw	1
  7935  001C36  6E3E               	movwf	_BothEP0OutUOWNsSet,c	;volatile
  7936                           
  7937                           ;usb_device.c: 1453: pBDTEntryEP0OutNext->CNT = 8;
  7938  001C38  EE20 F001          	lfsr	2,1
  7939  001C3C  503A               	movf	_pBDTEntryEP0OutNext,w,c
  7940  001C3E  26D9               	addwf	fsr2l,f,c
  7941  001C40  503B               	movf	_pBDTEntryEP0OutNext+1,w,c
  7942  001C42  22DA               	addwfc	fsr2h,f,c
  7943  001C44  0E08               	movlw	8
  7944  001C46  6EDF               	movwf	indf2,c
  7945                           
  7946                           ;usb_device.c: 1454: pBDTEntryEP0OutNext->ADR = ((uint16_t)(&SetupPkt));
  7947  001C48  EE20 F002          	lfsr	2,2
  7948  001C4C  503A               	movf	_pBDTEntryEP0OutNext,w,c
  7949  001C4E  26D9               	addwf	fsr2l,f,c
  7950  001C50  503B               	movf	_pBDTEntryEP0OutNext+1,w,c
  7951  001C52  22DA               	addwfc	fsr2h,f,c
  7952  001C54  0E20               	movlw	32
  7953  001C56  6EDE               	movwf	postinc2,c
  7954  001C58  0E04               	movlw	4
  7955  001C5A  6EDD               	movwf	postdec2,c
  7956                           
  7957                           ;usb_device.c: 1455: pBDTEntryEP0OutNext->STAT.Val = 0x80;
  7958  001C5C  C03A  FFD9         	movff	_pBDTEntryEP0OutNext,fsr2l
  7959  001C60  C03B  FFDA         	movff	_pBDTEntryEP0OutNext+1,fsr2h
  7960  001C64  0E80               	movlw	128
  7961  001C66  6EDF               	movwf	indf2,c
  7962  001C68                     i2l414:
  7963  001C68  0012               	return	
  7964  001C6A                     __end_of_USBCtrlEPAllowStatusStage:
  7965                           	opt stack 0
  7966                           pclatu	equ	0xFFB
  7967                           pclath	equ	0xFFA
  7968                           tblptru	equ	0xFF8
  7969                           tblptrh	equ	0xFF7
  7970                           tblptrl	equ	0xFF6
  7971                           tablat	equ	0xFF5
  7972                           prodh	equ	0xFF4
  7973                           prodl	equ	0xFF3
  7974                           intcon	equ	0xFF2
  7975                           postinc0	equ	0xFEE
  7976                           fsr0h	equ	0xFEA
  7977                           fsr0l	equ	0xFE9
  7978                           wreg	equ	0xFE8
  7979                           indf1	equ	0xFE7
  7980                           fsr1h	equ	0xFE2
  7981                           fsr1l	equ	0xFE1
  7982                           bsr	equ	0xFE0
  7983                           indf2	equ	0xFDF
  7984                           postinc2	equ	0xFDE
  7985                           postdec2	equ	0xFDD
  7986                           plusw2	equ	0xFDB
  7987                           fsr2h	equ	0xFDA
  7988                           fsr2l	equ	0xFD9
  7989                           status	equ	0xFD8
  7990                           
  7991 ;; *************** function _USBCtrlTrfInHandler *****************
  7992 ;; Defined at:
  7993 ;;		line 2595 in file "../src/usb/src/usb_device.c"
  7994 ;; Parameters:    Size  Location     Type
  7995 ;;		None
  7996 ;; Auto vars:     Size  Location     Type
  7997 ;;  lastDTS         1   18[COMRAM] unsigned char 
  7998 ;; Return value:  Size  Location     Type
  7999 ;;		None               void
  8000 ;; Registers used:
  8001 ;;		wreg, fsr1l, fsr1h, fsr2l, fsr2h, status,2, status,0, tblptrl, tblptrh, tblptru, cstack
  8002 ;; Tracked objects:
  8003 ;;		On entry : 0/0
  8004 ;;		On exit  : 0/0
  8005 ;;		Unchanged: 0/0
  8006 ;; Data sizes:     COMRAM   BANK0   BANK1   BANK2   BANK3   BANK4   BANK5   BANK6   BANK7
  8007 ;;      Params:         0       0       0       0       0       0       0       0       0
  8008 ;;      Locals:         1       0       0       0       0       0       0       0       0
  8009 ;;      Temps:          0       0       0       0       0       0       0       0       0
  8010 ;;      Totals:         1       0       0       0       0       0       0       0       0
  8011 ;;Total ram usage:        1 bytes
  8012 ;; Hardware stack levels used:    1
  8013 ;; Hardware stack levels required when called:    1
  8014 ;; This function calls:
  8015 ;;		_USBCtrlTrfTxService
  8016 ;; This function is called by:
  8017 ;;		_USBCtrlEPService
  8018 ;; This function uses a non-reentrant model
  8019 ;;
  8020                           
  8021                           	psect	text41
  8022  001C6A                     __ptext41:
  8023                           	opt stack 0
  8024  001C6A                     _USBCtrlTrfInHandler:
  8025                           	opt stack 22
  8026                           
  8027                           ;usb_device.c: 2597: uint8_t lastDTS;
  8028                           ;usb_device.c: 2599: lastDTS = pBDTEntryIn[0]->STAT.DTS;
  8029                           
  8030                           ;incstack = 0
  8031  001C6A  C068  FFD9         	movff	_pBDTEntryIn,fsr2l
  8032  001C6E  C069  FFDA         	movff	_pBDTEntryIn+1,fsr2h
  8033  001C72  0E00               	movlw	0
  8034  001C74  BCDF               	btfsc	indf2,6,c
  8035  001C76  0E01               	movlw	1
  8036  001C78  6E13               	movwf	USBCtrlTrfInHandler@lastDTS,c
  8037                           
  8038                           ;usb_device.c: 2602: ((uint8_t_VAL*)&pBDTEntryIn[0])->Val ^= 0x0004;
  8039  001C7A  0E04               	movlw	4
  8040  001C7C  0100               	movlb	0	; () banked
  8041  001C7E  1B68               	xorwf	_pBDTEntryIn& (0+255),f,b
  8042                           
  8043                           ; BSR set to: 0
  8044                           ;usb_device.c: 2607: if(USBDeviceState == ADR_PENDING_STATE)
  8045  001C80  0100               	movlb	0	; () banked
  8046  001C82  5178               	movf	_USBDeviceState& (0+255),w,b	;volatile
  8047  001C84  0A08               	xorlw	8
  8048  001C86  A4D8               	btfss	status,2,c
  8049  001C88  D00C               	goto	i2l4386
  8050                           
  8051                           ; BSR set to: 0
  8052                           ;usb_device.c: 2608: {
  8053                           ;usb_device.c: 2609: UADDR = (SetupPkt.bDevADR & 0x7F);
  8054  001C8A  0104               	movlb	4	; () banked
  8055  001C8C  5122               	movf	34,w,b	;volatile
  8056  001C8E  0B7F               	andlw	127
  8057  001C90  6E6E               	movwf	3950,c	;volatile
  8058                           
  8059                           ; BSR set to: 4
  8060                           ;usb_device.c: 2610: if(UADDR != 0u)
  8061  001C92  506E               	movf	3950,w,c	;volatile
  8062  001C94  B4D8               	btfsc	status,2,c
  8063  001C96  D002               	goto	i2l4384
  8064                           
  8065                           ; BSR set to: 4
  8066                           ;usb_device.c: 2611: {
  8067                           ;usb_device.c: 2612: USBDeviceState=ADDRESS_STATE;
  8068  001C98  0E10               	movlw	16
  8069  001C9A  D001               	goto	L27
  8070  001C9C                     i2l4384:
  8071                           
  8072                           ;usb_device.c: 2614: else
  8073                           ;usb_device.c: 2615: {
  8074                           ;usb_device.c: 2616: USBDeviceState=DEFAULT_STATE;
  8075  001C9C  0E04               	movlw	4
  8076  001C9E                     L27:
  8077  001C9E  0100               	movlb	0	; () banked
  8078  001CA0  6F78               	movwf	_USBDeviceState& (0+255),b	;volatile
  8079  001CA2                     i2l4386:
  8080                           
  8081                           ; BSR set to: 0
  8082                           ;usb_device.c: 2617: }
  8083                           ;usb_device.c: 2618: }
  8084                           ;usb_device.c: 2621: if(controlTransferState == 1)
  8085  001CA2  0447               	decf	_controlTransferState,w,c	;volatile
  8086  001CA4  A4D8               	btfss	status,2,c
  8087  001CA6  D02E               	goto	i2l541
  8088                           
  8089                           ; BSR set to: 0
  8090                           ;usb_device.c: 2622: {
  8091                           ;usb_device.c: 2623: pBDTEntryIn[0]->ADR = ((uint16_t)(CtrlTrfData));
  8092  001CA8  0100               	movlb	0	; () banked
  8093  001CAA  EE20 F002          	lfsr	2,2
  8094  001CAE  0100               	movlb	0	; () banked
  8095  001CB0  5168               	movf	_pBDTEntryIn& (0+255),w,b
  8096  001CB2  26D9               	addwf	fsr2l,f,c
  8097  001CB4  0100               	movlb	0	; () banked
  8098  001CB6  5169               	movf	(_pBDTEntryIn+1)& (0+255),w,b
  8099  001CB8  22DA               	addwfc	fsr2h,f,c
  8100  001CBA  0E28               	movlw	40
  8101  001CBC  6EDE               	movwf	postinc2,c
  8102  001CBE  0E04               	movlw	4
  8103  001CC0  6EDD               	movwf	postdec2,c
  8104                           
  8105                           ; BSR set to: 0
  8106                           ;usb_device.c: 2624: USBCtrlTrfTxService();
  8107  001CC2  EC9B  F00C         	call	_USBCtrlTrfTxService	;wreg free
  8108                           
  8109                           ;usb_device.c: 2630: if(shortPacketStatus == 2)
  8110  001CC6  5049               	movf	_shortPacketStatus,w,c	;volatile
  8111  001CC8  0A02               	xorlw	2
  8112  001CCA  A4D8               	btfss	status,2,c
  8113  001CCC  D006               	goto	i2l542
  8114                           
  8115                           ;usb_device.c: 2631: {
  8116                           ;usb_device.c: 2634: pBDTEntryIn[0]->STAT.Val = 0x04;
  8117  001CCE  C068  FFD9         	movff	_pBDTEntryIn,fsr2l
  8118  001CD2  C069  FFDA         	movff	_pBDTEntryIn+1,fsr2h
  8119  001CD6  0E04               	movlw	4
  8120  001CD8  D00D               	goto	L29
  8121  001CDA                     i2l542:
  8122                           
  8123                           ;usb_device.c: 2637: else
  8124                           ;usb_device.c: 2638: {
  8125                           ;usb_device.c: 2639: if(lastDTS == 0)
  8126  001CDA  6613               	tstfsz	USBCtrlTrfInHandler@lastDTS,c
  8127  001CDC  D006               	goto	i2l4402
  8128                           
  8129                           ;usb_device.c: 2640: {
  8130                           ;usb_device.c: 2641: pBDTEntryIn[0]->STAT.Val = 0x40|(0x08 & 0x08);
  8131  001CDE  C068  FFD9         	movff	_pBDTEntryIn,fsr2l
  8132  001CE2  C069  FFDA         	movff	_pBDTEntryIn+1,fsr2h
  8133  001CE6  0E48               	movlw	72
  8134  001CE8  D005               	goto	L29
  8135  001CEA                     i2l4402:
  8136                           
  8137                           ;usb_device.c: 2644: else
  8138                           ;usb_device.c: 2645: {
  8139                           ;usb_device.c: 2646: pBDTEntryIn[0]->STAT.Val = 0x00|(0x08 & 0x08);
  8140  001CEA  C068  FFD9         	movff	_pBDTEntryIn,fsr2l
  8141  001CEE  C069  FFDA         	movff	_pBDTEntryIn+1,fsr2h
  8142  001CF2  0E08               	movlw	8
  8143  001CF4                     L29:
  8144  001CF4  6EDF               	movwf	indf2,c
  8145                           
  8146                           ;usb_device.c: 2647: pBDTEntryIn[0]->STAT.Val |= 0x80;
  8147  001CF6  C068  FFD9         	movff	_pBDTEntryIn,fsr2l
  8148  001CFA  C069  FFDA         	movff	_pBDTEntryIn+1,fsr2h
  8149  001CFE  0E00               	movlw	0
  8150  001D00  8EDB               	bsf	plusw2,7,c
  8151  001D02  D007               	goto	i2l549
  8152  001D04                     i2l541:
  8153                           
  8154                           ; BSR set to: 0
  8155                           ;usb_device.c: 2651: else
  8156                           ;usb_device.c: 2652: {
  8157                           ;usb_device.c: 2656: if(outPipes[0].info.bits.busy == 1)
  8158  001D04  0100               	movlb	0	; () banked
  8159  001D06  AF63               	btfss	(_outPipes+3)& (0+255),7,b	;volatile
  8160  001D08  D002               	goto	i2l4408
  8161                           
  8162                           ; BSR set to: 0
  8163                           ;usb_device.c: 2661: }
  8164                           ;usb_device.c: 2662: outPipes[0].info.bits.busy = 0;
  8165                           
  8166                           ; BSR set to: 0
  8167                           ;usb_device.c: 2659: {
  8168                           ;usb_device.c: 2660: outPipes[0].pFunc();
  8169  001D0A  0100               	movlb	0	; () banked
  8170  001D0C  9F63               	bcf	(_outPipes+3)& (0+255),7,b	;volatile
  8171  001D0E                     i2l4408:
  8172                           
  8173                           ; BSR set to: 0
  8174                           ;usb_device.c: 2663: }
  8175                           ;usb_device.c: 2665: controlTransferState = 0;
  8176  001D0E  0E00               	movlw	0
  8177  001D10  6E47               	movwf	_controlTransferState,c	;volatile
  8178  001D12                     i2l549:
  8179  001D12  0012               	return	
  8180  001D14                     __end_of_USBCtrlTrfInHandler:
  8181                           	opt stack 0
  8182                           pclatu	equ	0xFFB
  8183                           pclath	equ	0xFFA
  8184                           tblptru	equ	0xFF8
  8185                           tblptrh	equ	0xFF7
  8186                           tblptrl	equ	0xFF6
  8187                           tablat	equ	0xFF5
  8188                           prodh	equ	0xFF4
  8189                           prodl	equ	0xFF3
  8190                           intcon	equ	0xFF2
  8191                           postinc0	equ	0xFEE
  8192                           fsr0h	equ	0xFEA
  8193                           fsr0l	equ	0xFE9
  8194                           wreg	equ	0xFE8
  8195                           indf1	equ	0xFE7
  8196                           fsr1h	equ	0xFE2
  8197                           fsr1l	equ	0xFE1
  8198                           bsr	equ	0xFE0
  8199                           indf2	equ	0xFDF
  8200                           postinc2	equ	0xFDE
  8201                           postdec2	equ	0xFDD
  8202                           plusw2	equ	0xFDB
  8203                           fsr2h	equ	0xFDA
  8204                           fsr2l	equ	0xFD9
  8205                           status	equ	0xFD8
  8206                           
  8207 ;; *************** function _USBCtrlTrfTxService *****************
  8208 ;; Defined at:
  8209 ;;		line 1771 in file "../src/usb/src/usb_device.c"
  8210 ;; Parameters:    Size  Location     Type
  8211 ;;		None
  8212 ;; Auto vars:     Size  Location     Type
  8213 ;;  byteToSend      1   17[COMRAM] unsigned char 
  8214 ;; Return value:  Size  Location     Type
  8215 ;;		None               void
  8216 ;; Registers used:
  8217 ;;		wreg, fsr1l, fsr1h, fsr2l, fsr2h, status,2, status,0, tblptrl, tblptrh, tblptru
  8218 ;; Tracked objects:
  8219 ;;		On entry : 0/0
  8220 ;;		On exit  : 0/0
  8221 ;;		Unchanged: 0/0
  8222 ;; Data sizes:     COMRAM   BANK0   BANK1   BANK2   BANK3   BANK4   BANK5   BANK6   BANK7
  8223 ;;      Params:         0       0       0       0       0       0       0       0       0
  8224 ;;      Locals:         1       0       0       0       0       0       0       0       0
  8225 ;;      Temps:          0       0       0       0       0       0       0       0       0
  8226 ;;      Totals:         1       0       0       0       0       0       0       0       0
  8227 ;;Total ram usage:        1 bytes
  8228 ;; Hardware stack levels used:    1
  8229 ;; This function calls:
  8230 ;;		Nothing
  8231 ;; This function is called by:
  8232 ;;		_USBCtrlEPAllowDataStage
  8233 ;;		_USBCtrlTrfInHandler
  8234 ;; This function uses a non-reentrant model
  8235 ;;
  8236                           
  8237                           	psect	text42
  8238  001936                     __ptext42:
  8239                           	opt stack 0
  8240  001936                     _USBCtrlTrfTxService:
  8241                           	opt stack 20
  8242                           
  8243                           ;usb_device.c: 1773: uint8_t byteToSend;
  8244                           ;usb_device.c: 1777: byteToSend = 8;
  8245                           
  8246                           ;incstack = 0
  8247  001936  0E08               	movlw	8
  8248  001938  6E12               	movwf	USBCtrlTrfTxService@byteToSend,c
  8249                           
  8250                           ;usb_device.c: 1778: if(inPipes[0].wCount.Val < (uint8_t)8)
  8251  00193A  0E08               	movlw	8
  8252  00193C  0100               	movlb	0	; () banked
  8253  00193E  5D7E               	subwf	(_inPipes+4)& (0+255),w,b	;volatile
  8254  001940  0E00               	movlw	0
  8255  001942  0100               	movlb	0	; () banked
  8256  001944  597F               	subwfb	(_inPipes+5)& (0+255),w,b	;volatile
  8257  001946  B0D8               	btfsc	status,0,c
  8258  001948  D00B               	goto	i2l3918
  8259                           
  8260                           ; BSR set to: 0
  8261                           ;usb_device.c: 1779: {
  8262                           ;usb_device.c: 1780: byteToSend = inPipes[0].wCount.Val;
  8263  00194A  C07E  F012         	movff	_inPipes+4,USBCtrlTrfTxService@byteToSend	;volatile
  8264                           
  8265                           ;usb_device.c: 1787: if(shortPacketStatus == 0)
  8266  00194E  6649               	tstfsz	_shortPacketStatus,c	;volatile
  8267  001950  D002               	goto	i2l3914
  8268                           
  8269                           ; BSR set to: 0
  8270                           ;usb_device.c: 1788: {
  8271                           ;usb_device.c: 1789: shortPacketStatus = 1;
  8272  001952  0E01               	movlw	1
  8273  001954  D004               	goto	L30
  8274  001956                     i2l3914:
  8275                           
  8276                           ; BSR set to: 0
  8277                           ;usb_device.c: 1791: else if(shortPacketStatus == 1)
  8278  001956  0449               	decf	_shortPacketStatus,w,c	;volatile
  8279  001958  A4D8               	btfss	status,2,c
  8280  00195A  D002               	goto	i2l3918
  8281                           
  8282                           ; BSR set to: 0
  8283                           ;usb_device.c: 1792: {
  8284                           ;usb_device.c: 1793: shortPacketStatus = 2;
  8285  00195C  0E02               	movlw	2
  8286  00195E                     L30:
  8287  00195E  6E49               	movwf	_shortPacketStatus,c	;volatile
  8288  001960                     i2l3918:
  8289                           
  8290                           ; BSR set to: 0
  8291                           ;usb_device.c: 1794: }
  8292                           ;usb_device.c: 1795: }
  8293                           ;usb_device.c: 1799: inPipes[0].wCount.Val -= byteToSend;
  8294  001960  5012               	movf	USBCtrlTrfTxService@byteToSend,w,c
  8295  001962  0100               	movlb	0	; () banked
  8296  001964  5F7E               	subwf	(_inPipes+4)& (0+255),f,b	;volatile
  8297  001966  0E00               	movlw	0
  8298  001968  0100               	movlb	0	; () banked
  8299  00196A  5B7F               	subwfb	(_inPipes+5)& (0+255),f,b	;volatile
  8300                           
  8301                           ; BSR set to: 0
  8302                           ;usb_device.c: 1804: pBDTEntryIn[0]->CNT = byteToSend;
  8303  00196C  0100               	movlb	0	; () banked
  8304  00196E  EE20 F001          	lfsr	2,1
  8305  001972  0100               	movlb	0	; () banked
  8306  001974  5168               	movf	_pBDTEntryIn& (0+255),w,b
  8307  001976  26D9               	addwf	fsr2l,f,c
  8308  001978  0100               	movlb	0	; () banked
  8309  00197A  5169               	movf	(_pBDTEntryIn+1)& (0+255),w,b
  8310  00197C  22DA               	addwfc	fsr2h,f,c
  8311  00197E  C012  FFDF         	movff	USBCtrlTrfTxService@byteToSend,indf2
  8312                           
  8313                           ; BSR set to: 0
  8314                           ;usb_device.c: 1808: pDst = (volatile uint8_t*)CtrlTrfData;
  8315  001982  0104               	movlb	4	; () banked
  8316  001984  0E04               	movlw	4	;volatile
  8317  001986  6E3D               	movwf	_pDst+1,c
  8318  001988  0104               	movlb	4	; () banked
  8319  00198A  0E28               	movlw	40	;volatile
  8320  00198C  6E3C               	movwf	_pDst,c
  8321                           
  8322                           ; BSR set to: 4
  8323                           ;usb_device.c: 1809: if(inPipes[0].info.bits.ctrl_trf_mem == 0x00)
  8324  00198E  0100               	movlb	0	; () banked
  8325  001990  A17D               	btfss	(_inPipes+3)& (0+255),0,b	;volatile
  8326  001992  D01E               	goto	i2l3936
  8327  001994  D03D               	goto	i2l3946
  8328  001996                     i2l3928:
  8329                           
  8330                           ; BSR set to: 0
  8331                           ;usb_device.c: 1812: {
  8332                           ;usb_device.c: 1813: *pDst++ = *inPipes[0].pSrc.bRom++;
  8333  001996  0100               	movlb	0	; () banked
  8334  001998  C07A  FFF6         	movff	_inPipes,tblptrl	;volatile
  8335  00199C  0100               	movlb	0	; () banked
  8336  00199E  C07B  FFF7         	movff	_inPipes+1,tblptrh	;volatile
  8337  0019A2  6AF8               	clrf	tblptru,c
  8338  0019A4  C03C  FFD9         	movff	_pDst,fsr2l
  8339  0019A8  C03D  FFDA         	movff	_pDst+1,fsr2h
  8340  0019AC  0E07               	movlw	(high __ramtop+-1)
  8341  0019AE  64F7               	cpfsgt	tblptrh,c
  8342  0019B0  D003               	bra	i2u328_47
  8343  0019B2  0008               	tblrd		*
  8344  0019B4  50F5               	movf	tablat,w,c
  8345  0019B6  D005               	bra	i2u328_40
  8346  0019B8                     i2u328_47:
  8347  0019B8  CFF6 FFE1          	movff	tblptrl,fsr1l
  8348  0019BC  CFF7 FFE2          	movff	tblptrh,fsr1h
  8349  0019C0  50E7               	movf	indf1,w,c
  8350  0019C2                     i2u328_40:
  8351  0019C2  6EDF               	movwf	indf2,c
  8352  0019C4  0100               	movlb	0	; () banked
  8353  0019C6  4B7A               	infsnz	_inPipes& (0+255),f,b	;volatile
  8354  0019C8  2B7B               	incf	(_inPipes+1)& (0+255),f,b	;volatile
  8355                           
  8356                           ; BSR set to: 0
  8357  0019CA  4A3C               	infsnz	_pDst,f,c
  8358  0019CC  2A3D               	incf	_pDst+1,f,c
  8359                           
  8360                           ; BSR set to: 0
  8361                           ;usb_device.c: 1814: byteToSend--;
  8362  0019CE  0612               	decf	USBCtrlTrfTxService@byteToSend,f,c
  8363  0019D0                     i2l3936:
  8364                           
  8365                           ; BSR set to: 0
  8366  0019D0  6612               	tstfsz	USBCtrlTrfTxService@byteToSend,c
  8367  0019D2  D7E1               	goto	i2l3928
  8368  0019D4  D01F               	goto	i2l453
  8369  0019D6                     i2l3938:
  8370                           
  8371                           ; BSR set to: 0
  8372                           ;usb_device.c: 1820: {
  8373                           ;usb_device.c: 1821: *pDst++ = *inPipes[0].pSrc.bRam++;
  8374  0019D6  0100               	movlb	0	; () banked
  8375  0019D8  C07A  FFF6         	movff	_inPipes,tblptrl	;volatile
  8376  0019DC  0100               	movlb	0	; () banked
  8377  0019DE  C07B  FFF7         	movff	_inPipes+1,tblptrh	;volatile
  8378  0019E2  6AF8               	clrf	tblptru,c
  8379  0019E4  C03C  FFD9         	movff	_pDst,fsr2l
  8380  0019E8  C03D  FFDA         	movff	_pDst+1,fsr2h
  8381  0019EC  0E07               	movlw	(high __ramtop+-1)
  8382  0019EE  64F7               	cpfsgt	tblptrh,c
  8383  0019F0  D003               	bra	i2u330_47
  8384  0019F2  0008               	tblrd		*
  8385  0019F4  50F5               	movf	tablat,w,c
  8386  0019F6  D005               	bra	i2u330_40
  8387  0019F8                     i2u330_47:
  8388  0019F8  CFF6 FFE1          	movff	tblptrl,fsr1l
  8389  0019FC  CFF7 FFE2          	movff	tblptrh,fsr1h
  8390  001A00  50E7               	movf	indf1,w,c
  8391  001A02                     i2u330_40:
  8392  001A02  6EDF               	movwf	indf2,c
  8393  001A04  0100               	movlb	0	; () banked
  8394  001A06  4B7A               	infsnz	_inPipes& (0+255),f,b	;volatile
  8395  001A08  2B7B               	incf	(_inPipes+1)& (0+255),f,b	;volatile
  8396                           
  8397                           ; BSR set to: 0
  8398  001A0A  4A3C               	infsnz	_pDst,f,c
  8399  001A0C  2A3D               	incf	_pDst+1,f,c
  8400                           
  8401                           ; BSR set to: 0
  8402                           ;usb_device.c: 1822: byteToSend--;
  8403  001A0E  0612               	decf	USBCtrlTrfTxService@byteToSend,f,c
  8404  001A10                     i2l3946:
  8405                           
  8406                           ; BSR set to: 0
  8407  001A10  6612               	tstfsz	USBCtrlTrfTxService@byteToSend,c
  8408  001A12  D7E1               	goto	i2l3938
  8409  001A14                     i2l453:
  8410                           
  8411                           ; BSR set to: 0
  8412  001A14  0012               	return	
  8413  001A16                     __end_of_USBCtrlTrfTxService:
  8414                           	opt stack 0
  8415                           pclatu	equ	0xFFB
  8416                           pclath	equ	0xFFA
  8417                           tblptru	equ	0xFF8
  8418                           tblptrh	equ	0xFF7
  8419                           tblptrl	equ	0xFF6
  8420                           tablat	equ	0xFF5
  8421                           prodh	equ	0xFF4
  8422                           prodl	equ	0xFF3
  8423                           intcon	equ	0xFF2
  8424                           postinc0	equ	0xFEE
  8425                           fsr0h	equ	0xFEA
  8426                           fsr0l	equ	0xFE9
  8427                           wreg	equ	0xFE8
  8428                           indf1	equ	0xFE7
  8429                           fsr1h	equ	0xFE2
  8430                           fsr1l	equ	0xFE1
  8431                           bsr	equ	0xFE0
  8432                           indf2	equ	0xFDF
  8433                           postinc2	equ	0xFDE
  8434                           postdec2	equ	0xFDD
  8435                           plusw2	equ	0xFDB
  8436                           fsr2h	equ	0xFDA
  8437                           fsr2l	equ	0xFD9
  8438                           status	equ	0xFD8
  8439                           pclatu	equ	0xFFB
  8440                           pclath	equ	0xFFA
  8441                           tblptru	equ	0xFF8
  8442                           tblptrh	equ	0xFF7
  8443                           tblptrl	equ	0xFF6
  8444                           tablat	equ	0xFF5
  8445                           prodh	equ	0xFF4
  8446                           prodl	equ	0xFF3
  8447                           intcon	equ	0xFF2
  8448                           postinc0	equ	0xFEE
  8449                           fsr0h	equ	0xFEA
  8450                           fsr0l	equ	0xFE9
  8451                           wreg	equ	0xFE8
  8452                           indf1	equ	0xFE7
  8453                           fsr1h	equ	0xFE2
  8454                           fsr1l	equ	0xFE1
  8455                           bsr	equ	0xFE0
  8456                           indf2	equ	0xFDF
  8457                           postinc2	equ	0xFDE
  8458                           postdec2	equ	0xFDD
  8459                           plusw2	equ	0xFDB
  8460                           fsr2h	equ	0xFDA
  8461                           fsr2l	equ	0xFD9
  8462                           status	equ	0xFD8
  8463                           
  8464                           	psect	rparam
  8465  0000                     pclatu	equ	0xFFB
  8466                           pclath	equ	0xFFA
  8467                           tblptru	equ	0xFF8
  8468                           tblptrh	equ	0xFF7
  8469                           tblptrl	equ	0xFF6
  8470                           tablat	equ	0xFF5
  8471                           prodh	equ	0xFF4
  8472                           prodl	equ	0xFF3
  8473                           intcon	equ	0xFF2
  8474                           postinc0	equ	0xFEE
  8475                           fsr0h	equ	0xFEA
  8476                           fsr0l	equ	0xFE9
  8477                           wreg	equ	0xFE8
  8478                           indf1	equ	0xFE7
  8479                           fsr1h	equ	0xFE2
  8480                           fsr1l	equ	0xFE1
  8481                           bsr	equ	0xFE0
  8482                           indf2	equ	0xFDF
  8483                           postinc2	equ	0xFDE
  8484                           postdec2	equ	0xFDD
  8485                           plusw2	equ	0xFDB
  8486                           fsr2h	equ	0xFDA
  8487                           fsr2l	equ	0xFD9
  8488                           status	equ	0xFD8


Data Sizes:
    Strings     0
    Constant    228
    Data        0
    BSS         59
    Persistent  0
    Stack       0

Auto Spaces:
    Space          Size  Autos    Used
    COMRAM           95     51      78
    BANK0           160     29      61
    BANK1           256      0       0
    BANK2           256      0       0
    BANK3           256      0       0
    BANK4           208      0       0
    BANK5           128      0       0
    BANK6           256      0       0
    BANK7           256      0       0

Pointer List with Targets:

    USER_USB_CALLBACK_EVENT_HANDLER@pdata	PTR void  size(2) Largest target is 32
		 -> USTATcopy(COMRAM[1]), USBActiveConfiguration(COMRAM[1]), BDT(BIGRAMll[32]), NULL(NULL[0]), 

    memset@p1	PTR void  size(2) Largest target is 64
		 -> USBAlternateInterface(COMRAM[1]), BDT(BIGRAMll[32]), UEP1(ABS[1]), ToSendDataBuffer(BIGRAMh[64]), 

    memset@p	PTR unsigned char  size(2) Largest target is 64
		 -> USBAlternateInterface(COMRAM[1]), BDT(BIGRAMll[32]), UEP1(ABS[1]), ToSendDataBuffer(BIGRAMh[64]), 

    USBStdFeatureReqHandler@pUEP	PTR unsigned char  size(2) Largest target is 1
		 -> UEP0(ABS[1]), 

    USBStdFeatureReqHandler@p	PTR struct __BDT size(2) Largest target is 32
		 -> BDT(BIGRAMll[32]), NULL(NULL[0]), 

    USBStdGetStatusHandler@p	PTR struct __BDT size(2) Largest target is 32
		 -> BDT(BIGRAMll[32]), NULL(NULL[0]), 

    pDst	PTR volatile unsigned char  size(2) Largest target is 8
		 -> CtrlTrfData(BIGRAMlh[8]), NULL(NULL[0]), 

    USBConfigureEndpoint@handle	PTR volatile struct __BDT size(2) Largest target is 32
		 -> BDT(BIGRAMll[32]), 

    pBDTEntryEP0OutCurrent	PTR volatile struct __BDT size(2) Largest target is 32
		 -> BDT(BIGRAMll[32]), NULL(NULL[0]), 

    pBDTEntryEP0OutNext	PTR volatile struct __BDT size(2) Largest target is 32
		 -> BDT(BIGRAMll[32]), NULL(NULL[0]), 

    USBTransferOnePacket@data	PTR unsigned char  size(2) Largest target is 64
		 -> ToSendDataBuffer(BIGRAMh[64]), ReceivedDataBuffer(BIGRAMll[64]), 

    USBTransferOnePacket@handle	PTR volatile struct __BDT size(2) Largest target is 32
		 -> BDT(BIGRAMll[32]), NULL(NULL[0]), 

    USBEnableEndpoint@p	PTR unsigned char  size(2) Largest target is 1
		 -> UEP0(ABS[1]), 

    pBDTEntryOut	PTR volatile struct __BDT[2] size(2) Largest target is 32
		 -> BDT(BIGRAMll[32]), NULL(NULL[0]), 

    pBDTEntryIn	PTR volatile struct __BDT[2] size(2) Largest target is 32
		 -> BDT(BIGRAMll[32]), NULL(NULL[0]), 

    S756$pFunc	PTR FTN()void  size(2) Largest target is 0

    outPipes.pFunc	PTR FTN()void  size(2) Largest target is 0

    S746$wRam	PTR unsigned int  size(2) Largest target is 0

    outPipes.pDst.wRam	PTR unsigned int  size(2) Largest target is 0

    S746$bRam	PTR unsigned char  size(2) Largest target is 0

    outPipes.pDst.bRam	PTR unsigned char  size(2) Largest target is 0

    S722$wRom	PTR const unsigned int  size(2) Largest target is 0

    inPipes.pSrc.wRom	PTR const unsigned int  size(2) Largest target is 0

    S722$wRam	PTR unsigned int  size(2) Largest target is 0

    inPipes.pSrc.wRam	PTR unsigned int  size(2) Largest target is 0

    S722$bRom	PTR const unsigned char  size(2) Largest target is 0

    inPipes.pSrc.bRom	PTR const unsigned char  size(2) Largest target is 0

    S722$bRam	PTR unsigned char  size(2) Largest target is 0

    inPipes.pSrc.bRam	PTR unsigned char  size(2) Largest target is 0

    USB_SD_Ptr	const PTR const unsigned char [3] size(2) Largest target is 72
		 -> sd002(CODE[72]), sd001(CODE[56]), sd000(CODE[4]), 

    USB_CD_Ptr	const PTR const unsigned char [1] size(2) Largest target is 41
		 -> configDescriptor1(CODE[41]), 

    sp__memset	PTR void  size(2) Largest target is 64
		 -> USBAlternateInterface(COMRAM[1]), BDT(BIGRAMll[32]), UEP1(ABS[1]), ToSendDataBuffer(BIGRAMh[64]), 

    sp__USBTransferOnePacket	PTR void  size(2) Largest target is 32
		 -> BDT(BIGRAMll[32]), NULL(NULL[0]), 

    USBOutHandle	PTR volatile void  size(2) Largest target is 32
		 -> BDT(BIGRAMll[32]), NULL(NULL[0]), 

    USBInHandle	PTR volatile void  size(2) Largest target is 32
		 -> BDT(BIGRAMll[32]), NULL(NULL[0]), 


Critical Paths under _main in COMRAM

    None.

Critical Paths under _SYS_InterruptHigh in COMRAM

    _USBDeviceTasks->_USBCtrlEPService
    i2_USBDeviceInit->i2_memset
    _USBWakeFromSuspend->_USER_USB_CALLBACK_EVENT_HANDLER
    _USBSuspend->_USER_USB_CALLBACK_EVENT_HANDLER
    _USBCtrlTrfSetupHandler->_USBCheckStdRequest
    _USBCtrlEPAllowDataStage->_USBCtrlTrfTxService
    _USBCheckStdRequest->_USBStdFeatureReqHandler
    _USBStdSetCfgHandler->_USER_USB_CALLBACK_EVENT_HANDLER
    _USBStdFeatureReqHandler->_USER_USB_CALLBACK_EVENT_HANDLER
    _APP_CustomHIDInitialize->_USBEnableEndpoint
    _USBEnableEndpoint->_USBConfigureEndpoint
    _USBCtrlTrfOutHandler->_USBCtrlTrfRxService
    _USBCtrlTrfInHandler->_USBCtrlTrfTxService

Critical Paths under _SYS_InterruptLow in COMRAM

    None.

Critical Paths under _main in BANK0

    _main->_APP_CustomHIDTasks
    _USBDeviceInit->_memset
    _initADC->_OpenADC
    _APP_CustomHIDTasks->_memset

Critical Paths under _SYS_InterruptHigh in BANK0

    _SYS_InterruptHigh->_USBDeviceTasks
    _USBDeviceTasks->_USBCtrlEPService

Critical Paths under _SYS_InterruptLow in BANK0

    None.

Critical Paths under _main in BANK1

    None.

Critical Paths under _SYS_InterruptHigh in BANK1

    None.

Critical Paths under _SYS_InterruptLow in BANK1

    None.

Critical Paths under _main in BANK2

    None.

Critical Paths under _SYS_InterruptHigh in BANK2

    None.

Critical Paths under _SYS_InterruptLow in BANK2

    None.

Critical Paths under _main in BANK3

    None.

Critical Paths under _SYS_InterruptHigh in BANK3

    None.

Critical Paths under _SYS_InterruptLow in BANK3

    None.

Critical Paths under _main in BANK4

    None.

Critical Paths under _SYS_InterruptHigh in BANK4

    None.

Critical Paths under _SYS_InterruptLow in BANK4

    None.

Critical Paths under _main in BANK5

    None.

Critical Paths under _SYS_InterruptHigh in BANK5

    None.

Critical Paths under _SYS_InterruptLow in BANK5

    None.

Critical Paths under _main in BANK6

    None.

Critical Paths under _SYS_InterruptHigh in BANK6

    None.

Critical Paths under _SYS_InterruptLow in BANK6

    None.

Critical Paths under _main in BANK7

    None.

Critical Paths under _SYS_InterruptHigh in BANK7

    None.

Critical Paths under _SYS_InterruptLow in BANK7

    None.

Call Graph Tables:

 ---------------------------------------------------------------------------------
 (Depth) Function   	        Calls       Base Space   Used Autos Params    Refs
 ---------------------------------------------------------------------------------
 (0) _main                                                 0     0      0    4053
                 _APP_CustomHIDTasks
                  _SYSTEM_Initialize
                    _USBDeviceAttach
                      _USBDeviceInit
 ---------------------------------------------------------------------------------
 (1) _USBDeviceInit                                        1     1      0    1399
                                             24 BANK0      1     1      0
                             _memset
 ---------------------------------------------------------------------------------
 (1) _USBDeviceAttach                                      0     0      0       0
 ---------------------------------------------------------------------------------
 (1) _SYSTEM_Initialize                                    1     1      0     354
                                             21 BANK0      1     1      0
                            _initADC
 ---------------------------------------------------------------------------------
 (2) _initADC                                              0     0      0     332
                            _OpenADC
 ---------------------------------------------------------------------------------
 (3) _OpenADC                                              5     3      2     332
                                             16 BANK0      5     3      2
 ---------------------------------------------------------------------------------
 (1) _APP_CustomHIDTasks                                   5     5      0    2300
                                             24 BANK0      5     5      0
                            _BusyADC
                         _ConvertADC
               _USBTransferOnePacket
                             _memset
 ---------------------------------------------------------------------------------
 (2) _memset                                               8     2      6    1197
                                             16 BANK0      8     2      6
 ---------------------------------------------------------------------------------
 (2) _USBTransferOnePacket                                 7     3      4    1055
                                             16 BANK0      7     3      4
 ---------------------------------------------------------------------------------
 (2) _ConvertADC                                           0     0      0       0
 ---------------------------------------------------------------------------------
 (2) _BusyADC                                              0     0      0       0
 ---------------------------------------------------------------------------------
 Estimated maximum stack depth 3
 ---------------------------------------------------------------------------------
 (Depth) Function   	        Calls       Base Space   Used Autos Params    Refs
 ---------------------------------------------------------------------------------
 (4) _SYS_InterruptLow                                    17    17      0       0
                                              0 COMRAM    17    17      0
 ---------------------------------------------------------------------------------
 Estimated maximum stack depth 4
 ---------------------------------------------------------------------------------
 (Depth) Function   	        Calls       Base Space   Used Autos Params    Refs
 ---------------------------------------------------------------------------------
 (5) _SYS_InterruptHigh                                   14    14      0   34822
                                              2 BANK0     14    14      0
                     _USBDeviceTasks
 ---------------------------------------------------------------------------------
 (6) _USBDeviceTasks                                       1     1      0   34822
                                              1 BANK0      1     1      0
          _USBCtrlEPAllowStatusStage
                   _USBCtrlEPService
                    _USBStallHandler
                         _USBSuspend
                 _USBWakeFromSuspend
    _USER_USB_CALLBACK_EVENT_HANDLER
                    i2_USBDeviceInit
 ---------------------------------------------------------------------------------
 (7) i2_USBDeviceInit                                      1     1      0     848
                                             25 COMRAM     1     1      0
                           i2_memset
 ---------------------------------------------------------------------------------
 (7) _USBWakeFromSuspend                                   0     0      0    4575
    _USER_USB_CALLBACK_EVENT_HANDLER
 ---------------------------------------------------------------------------------
 (7) _USBSuspend                                           0     0      0    4575
    _USER_USB_CALLBACK_EVENT_HANDLER
 ---------------------------------------------------------------------------------
 (7) _USBStallHandler                                      0     0      0       0
 ---------------------------------------------------------------------------------
 (7) _USBCtrlEPService                                     3     3      0   20181
                                             49 COMRAM     2     2      0
                                              0 BANK0      1     1      0
                _USBCtrlTrfInHandler
               _USBCtrlTrfOutHandler
             _USBCtrlTrfSetupHandler
 ---------------------------------------------------------------------------------
 (8) _USBCtrlTrfSetupHandler                               0     0      0   19745
                 _USBCheckStdRequest
           _USBCtrlEPServiceComplete
    _USER_USB_CALLBACK_EVENT_HANDLER
 ---------------------------------------------------------------------------------
 (9) _USBCtrlEPServiceComplete                             0     0      0     136
            _USBCtrlEPAllowDataStage
          _USBCtrlEPAllowStatusStage
 ---------------------------------------------------------------------------------
 (10) _USBCtrlEPAllowDataStage                             0     0      0     136
                _USBCtrlTrfTxService
 ---------------------------------------------------------------------------------
 (9) _USBCheckStdRequest                                   2     2      0   15034
                                             47 COMRAM     2     2      0
            _USBStdFeatureReqHandler
                _USBStdGetDscHandler
             _USBStdGetStatusHandler
                _USBStdSetCfgHandler
    _USER_USB_CALLBACK_EVENT_HANDLER
 ---------------------------------------------------------------------------------
 (10) _USBStdSetCfgHandler                                 1     1      0    5262
                                             39 COMRAM     1     1      0
    _USER_USB_CALLBACK_EVENT_HANDLER
                           i2_memset
 ---------------------------------------------------------------------------------
 (8) i2_memset                                             8     2      6     557
                                             17 COMRAM     8     2      6
 ---------------------------------------------------------------------------------
 (10) _USBStdGetStatusHandler                              3     3      0      68
                                             17 COMRAM     3     3      0
 ---------------------------------------------------------------------------------
 (10) _USBStdGetDscHandler                                 2     2      0       0
                                             17 COMRAM     2     2      0
 ---------------------------------------------------------------------------------
 (10) _USBStdFeatureReqHandler                             8     8      0    5129
                                             39 COMRAM     8     8      0
    _USER_USB_CALLBACK_EVENT_HANDLER
 ---------------------------------------------------------------------------------
 (7) _USER_USB_CALLBACK_EVENT_HANDLER                      8     2      6    4575
                                             31 COMRAM     8     2      6
            _APP_CustomHIDInitialize
              _APP_USBCBErrorHandler
                   _APP_USBCBSuspend
           _APP_USBCBWakeFromSuspend
              _APP_USBCB_SOF_Handler
                 _USBCheckHIDRequest
 ---------------------------------------------------------------------------------
 (8) _USBCheckHIDRequest                                   1     1      0       0
                                             17 COMRAM     1     1      0
 ---------------------------------------------------------------------------------
 (8) _APP_USBCB_SOF_Handler                                0     0      0       0
 ---------------------------------------------------------------------------------
 (8) _APP_USBCBWakeFromSuspend                             0     0      0       0
 ---------------------------------------------------------------------------------
 (8) _APP_USBCBSuspend                                     0     0      0       0
 ---------------------------------------------------------------------------------
 (8) _APP_USBCBErrorHandler                                0     0      0       0
 ---------------------------------------------------------------------------------
 (8) _APP_CustomHIDInitialize                              0     0      0    1424
                  _USBEnableEndpoint
             i2_USBTransferOnePacket
 ---------------------------------------------------------------------------------
 (9) i2_USBTransferOnePacket                               7     3      4     576
                                             17 COMRAM     7     3      4
 ---------------------------------------------------------------------------------
 (9) _USBEnableEndpoint                                    6     5      1     848
                                             25 COMRAM     6     5      1
               _USBConfigureEndpoint
 ---------------------------------------------------------------------------------
 (10) _USBConfigureEndpoint                                8     7      1     524
                                             17 COMRAM     8     7      1
 ---------------------------------------------------------------------------------
 (8) _USBCtrlTrfOutHandler                                 0     0      0     167
                _USBCtrlTrfRxService
 ---------------------------------------------------------------------------------
 (9) _USBCtrlTrfRxService                                  2     2      0     167
                                             17 COMRAM     2     2      0
          _USBCtrlEPAllowStatusStage
 ---------------------------------------------------------------------------------
 (10) _USBCtrlEPAllowStatusStage                           0     0      0       0
 ---------------------------------------------------------------------------------
 (8) _USBCtrlTrfInHandler                                  1     1      0     170
                                             18 COMRAM     1     1      0
                _USBCtrlTrfTxService
 ---------------------------------------------------------------------------------
 (11) _USBCtrlTrfTxService                                 1     1      0     136
                                             17 COMRAM     1     1      0
 ---------------------------------------------------------------------------------
 Estimated maximum stack depth 11
 ---------------------------------------------------------------------------------

 Call Graph Graphs:

 _main (ROOT)
   _APP_CustomHIDTasks
     _BusyADC
     _ConvertADC
     _USBTransferOnePacket
     _memset
   _SYSTEM_Initialize
     _initADC
       _OpenADC
   _USBDeviceAttach
   _USBDeviceInit
     _memset

 _SYS_InterruptLow (ROOT)

 _SYS_InterruptHigh (ROOT)
   _USBDeviceTasks
     _USBCtrlEPAllowStatusStage
     _USBCtrlEPService
       _USBCtrlTrfInHandler
         _USBCtrlTrfTxService
       _USBCtrlTrfOutHandler
         _USBCtrlTrfRxService
           _USBCtrlEPAllowStatusStage
       _USBCtrlTrfSetupHandler
         _USBCheckStdRequest
           _USBStdFeatureReqHandler
             _USER_USB_CALLBACK_EVENT_HANDLER
               _APP_CustomHIDInitialize
                 _USBEnableEndpoint
                   _USBConfigureEndpoint
                 i2_USBTransferOnePacket
               _APP_USBCBErrorHandler
               _APP_USBCBSuspend
               _APP_USBCBWakeFromSuspend
               _APP_USBCB_SOF_Handler
               _USBCheckHIDRequest
           _USBStdGetDscHandler
           _USBStdGetStatusHandler
           _USBStdSetCfgHandler
             _USER_USB_CALLBACK_EVENT_HANDLER
               _APP_CustomHIDInitialize
                 _USBEnableEndpoint
                   _USBConfigureEndpoint
                 i2_USBTransferOnePacket
               _APP_USBCBErrorHandler
               _APP_USBCBSuspend
               _APP_USBCBWakeFromSuspend
               _APP_USBCB_SOF_Handler
               _USBCheckHIDRequest
             i2_memset
           _USER_USB_CALLBACK_EVENT_HANDLER
             _APP_CustomHIDInitialize
               _USBEnableEndpoint
                 _USBConfigureEndpoint
               i2_USBTransferOnePacket
             _APP_USBCBErrorHandler
             _APP_USBCBSuspend
             _APP_USBCBWakeFromSuspend
             _APP_USBCB_SOF_Handler
             _USBCheckHIDRequest
         _USBCtrlEPServiceComplete
           _USBCtrlEPAllowDataStage
             _USBCtrlTrfTxService
           _USBCtrlEPAllowStatusStage
         _USER_USB_CALLBACK_EVENT_HANDLER
           _APP_CustomHIDInitialize
             _USBEnableEndpoint
               _USBConfigureEndpoint
             i2_USBTransferOnePacket
           _APP_USBCBErrorHandler
           _APP_USBCBSuspend
           _APP_USBCBWakeFromSuspend
           _APP_USBCB_SOF_Handler
           _USBCheckHIDRequest
     _USBStallHandler
     _USBSuspend
       _USER_USB_CALLBACK_EVENT_HANDLER
         _APP_CustomHIDInitialize
           _USBEnableEndpoint
             _USBConfigureEndpoint
           i2_USBTransferOnePacket
         _APP_USBCBErrorHandler
         _APP_USBCBSuspend
         _APP_USBCBWakeFromSuspend
         _APP_USBCB_SOF_Handler
         _USBCheckHIDRequest
     _USBWakeFromSuspend
       _USER_USB_CALLBACK_EVENT_HANDLER
         _APP_CustomHIDInitialize
           _USBEnableEndpoint
             _USBConfigureEndpoint
           i2_USBTransferOnePacket
         _APP_USBCBErrorHandler
         _APP_USBCBSuspend
         _APP_USBCBWakeFromSuspend
         _APP_USBCB_SOF_Handler
         _USBCheckHIDRequest
     _USER_USB_CALLBACK_EVENT_HANDLER
       _APP_CustomHIDInitialize
         _USBEnableEndpoint
           _USBConfigureEndpoint
         i2_USBTransferOnePacket
       _APP_USBCBErrorHandler
       _APP_USBCBSuspend
       _APP_USBCBWakeFromSuspend
       _APP_USBCB_SOF_Handler
       _USBCheckHIDRequest
     i2_USBDeviceInit
       i2_memset

 Address spaces:
Name               Size   Autos  Total    Cost      Usage
BIGRAMll           3FF      0       0      23        0.0%
BIGRAMh            280      0       0      21        0.0%
EEDATA             100      0       0       0        0.0%
BITBANK7           100      0       0      19        0.0%
BANK7              100      0       0      20        0.0%
BITBANK6           100      0       0      17        0.0%
BANK6              100      0       0      18        0.0%
BITBANK3           100      0       0      10        0.0%
BANK3              100      0       0      11        0.0%
BITBANK2           100      0       0       8        0.0%
BANK2              100      0       0       9        0.0%
BITBANK1           100      0       0       6        0.0%
BANK1              100      0       0       7        0.0%
BIGRAMlh            D0      0       0      22        0.0%
BITBANK4            D0      0       0      12        0.0%
BANK4               D0      0       0      13        0.0%
BITBANK0            A0      0       0       4        0.0%
BANK0               A0     1D      3D       5       38.1%
BITBANK5            80      0       0      14        0.0%
BANK5               80      0       0      15        0.0%
BITCOMRAM           5F      0       0       0        0.0%
COMRAM              5F     33      4E       1       82.1%
BITSFR               0      0       0      40        0.0%
SFR                  0      0       0      40        0.0%
STACK                0      0       0       2        0.0%
NULL                 0      0       0       0        0.0%
ABS                  0      0      8B      16        0.0%
DATA                 0      0      8B       3        0.0%
CODE                 0      0       0       0        0.0%


Microchip Technology PIC18 Macro Assembler V1.33 build 59893 
Symbol Table                                                                                   Sun Jan 11 20:23:21 2015

                              _USB_SD_Ptr 0801                                        l70 0D46  
                                      l58 0C86                               __CFG_BOR$ON 000000  
                                      bsr 000FE0                             _USBDeviceInit 0D48  
                             __CFG_BORV$3 000000                        __CFG_FOSC$XTPLL_XT 000000  
                      _USBCheckHIDRequest 138C                              __CFG_CP0$OFF 000000  
                            __CFG_CP1$OFF 000000      USER_USB_CALLBACK_EVENT_HANDLER@event 0020  
    USER_USB_CALLBACK_EVENT_HANDLER@pdata 0022                                       l403 21BE  
                                     l404 21BC               __end_of_USBStdGetDscHandler 1148  
                                     l406 21C8                                       l194 21F8  
                                     l384 1582                                       l633 22DC  
                                     l655 1F5A                                       _BDT 000400  
                            __CFG_CPB$OFF 000000                                       _UIE 000F69  
                                     _UIR 000F68                                _USBSuspend 2254  
                    USBStdSetCfgHandler@i 0028                                       prod 000FF3  
                                     wreg 000FE8                            _USBDeviceTasks 1148  
                     ?_USBCheckHIDRequest 0001                            _USBDeviceState 0078  
                   ??_USBCtrlTrfRxService 0012                  __size_ofi2_USBDeviceInit 0150  
                USBEnableEndpoint@options 001A                              __CFG_LVP$OFF 000000  
                       ?_APP_USBCBSuspend 0001                              __CFG_WDT$OFF 000000  
                                    l3204 155C                                      l3212 216E  
                                    l3216 2182                                      l3400 0D00  
                                    l3410 21D0                USBConfigureEndpoint@handle 0018  
                                    l3192 14E6                                      l3184 14AC  
                                    l3426 21E8                                      l3380 0C56  
                                    l3372 0C14                                      l3374 0C36  
                                    l3366 0BD0                                      l3446 0D92  
                                    l3392 0C96                                      l3376 0C4C  
                                    l3368 0BDC                                      l3386 0C70  
                                    l3394 0CC4                                      l3474 0E02  
                                    l3458 0DC8                                      l3466 0DE2  
                                    l3398 0CF4                                      l3678 22AC  
                                    _LATB 000F8A                                      u2410 22DA  
                                    u2600 0C44                                      u2606 0C46  
                                    u2640 0CE2                                      u2570 0BBE  
                                    u2590 0C1C                                      u2648 0CE6  
                                    u2578 0BC2                                      u2596 0C1E  
                   ??_USBCtrlTrfTxService 0012                                      _UCFG 000F6F  
                                    _UEP0 000F70                                      _UEP1 000F71  
                                    _UEIE 000F6B                                      _UEIR 000F6A  
                                    _UCON 000F6D                        ??_APP_USBCBSuspend 0012  
  USBStdFeatureReqHandler@current_ep_data 002D                                      _pDst 003C  
                                    _main 229E                  ??i2_USBTransferOnePacket 0016  
                                    fsr0h 000FEA                                      fsr1h 000FE2  
                                    fsr0l 000FE9                                      fsr2h 000FDA  
                                    indf1 000FE7                                      fsr1l 000FE1  
                                    indf2 000FDF                                      fsr2l 000FD9  
                         _USBDeviceAttach 2198                                      pclat 000FFA  
                                    prodh 000FF4                                      prodl 000FF3  
                                    start 00A2                             __CFG_IESO$OFF 000000  
                    ??_USBCheckHIDRequest 0012                __end_of_USBCheckStdRequest 1856  
                  ??_USBCtrlTrfOutHandler 0014                             __CFG_MCLRE$ON 000000  
                         __end_of_BusyADC 22DE                 ??_USBStdFeatureReqHandler 0028  
                            _USBOutHandle 0072                           __end_of_OpenADC 1F5E  
                ??_USBStdGetStatusHandler 0012                    _APP_CustomHIDTasks$326 0099  
                  _APP_CustomHIDTasks$376 009B                            ?_USBDeviceInit 0001  
                           __CFG_PLLDIV$1 000000                                     ?_main 0001  
       __size_of_USBCtrlEPServiceComplete 00F0                    __end_of_USBDeviceTasks 127E  
               ?_USBCtrlEPServiceComplete 0001            __size_of_APP_USBCB_SOF_Handler 0002  
                                   i2l501 1BA4                                     i2l414 1C68  
                                   i2l166 1FD8                                     i2l504 2122  
                                   i2l611 148A                                     i2l428 16F0  
                                   i2l453 1A14                                     i2l541 1D04  
                                   i2l525 1934                                     i2l365 127A  
                                   i2l542 1CDA                                     i2l438 1764  
                                   i2l366 1206                                     i2l535 209E  
                                   i2l384 1ADE                                     i2l480 1036  
                                   i2l553 1854                                     i2l466 138A  
                                   i2l491 1AEE                                     i2l555 1776  
                                   i2l564 17D6                                     i2l549 1D12  
                                   i2l494 1B84                                     i2l487 1146  
                                   i2l495 1AFE                                     i2l496 1B04  
                                   i2l593 0B9E                                     i2l589 0AF8  
           __end_of_APP_USBCB_SOF_Handler 22E4                                     _UADDR 000F6E  
                           __CFG_USBDIV$2 000000                                     _TRISB 000F93  
                                   _USTAT 000F6C                             __CFG_PWRT$OFF 000000  
                           __CFG_WRT0$OFF 000000        __size_of_USBCtrlEPAllowStatusStage 00C4  
                           __CFG_WRT1$OFF 000000                            __CFG_EBTR0$OFF 000000  
                          __CFG_FCMEN$OFF 000000                            __CFG_EBTR1$OFF 000000  
         __end_of_USBCtrlEPAllowDataStage 1DB2                                     _sd000 08E1  
                                   _sd001 0851                                     _sd002 0809  
                           __CFG_WRTB$OFF 000000                             __CFG_WRTC$OFF 000000  
                         __end_of_initADC 22D2                            __CFG_EBTRB$OFF 000000  
                              i2memset@p1 0012                                _ConvertADC 22DE  
                                   tablat 000FF5                  __end_of_SYS_InterruptLow 00A2  
                                   plusw2 000FDB                                     status 000FD8  
                _APP_USBCBWakeFromSuspend 22E4                          __end_ofi2_memset 2254  
                 _APP_CustomHIDInitialize 2126              __size_of_USBStdSetCfgHandler 00F2  
                         __initialization 227C                              __end_of_main 22BE  
               __size_of_USBCtrlEPService 00E0                                    ??_main 009D  
                           __activetblptr 000002                           ?_USBDeviceTasks 0001  
                             ?_USBSuspend 0001                   __end_of_USBDeviceAttach 21CA  
                                  _ADCON0 000FC2                                    _ADCON1 000FC1  
                                  _ADCON2 000FC0                                    _ADRESH 000FC4  
                                  _ADRESL 000FC3                    SYSTEM_Initialize@state 0095  
                                  i2l4002 1D5E                                    i2l4102 1B6C  
                                  i2l4006 1D7A                                    i2l4120 090C  
                                  i2l4122 0910                                    i2l4026 15CC  
                                  i2l4210 169A                                    i2l4300 1788  
                                  i2l4142 09DC                                    i2l4310 179C  
                                  i2l4302 178E                                    i2l4206 1690  
                                  i2l4160 0A78                                    i2l4144 09DE  
                                  i2l4136 0990                                    i2l4056 101C  
                                  i2l4080 112E                                    i2l4048 1652  
                                  i2l4312 17A2                                    i2l4224 1702  
                                  i2l4232 1714                                    i2l4402 1CEA  
                                  i2l4314 17A8                                    i2l4260 12B2  
                                  i2l4164 0A92                                    i2l4148 09FE  
                                  i2l4076 1126                                    i2l4068 10C8  
                                  i2l4092 1B28                                    i2l4324 17F4  
                                  i2l4420 2222                                    i2l4190 0B62  
                                  i2l4174 0AD8                                    i2l4158 0A58  
                                  i2l4510 0F26                                    i2l4408 1D0E  
                                  i2l4360 2054                                    i2l4192 0B6E  
                                  i2l4184 0B18                                    i2l4176 0AE4  
                                  i2l4328 1812                                    i2l4282 1342  
                                  i2l4266 12DA                                    i2l4370 209A  
                                  i2l3810 1ABE                                    i2l4442 2120  
                                  i2l4418 2220                                    i2l4610 11CE  
                                  i2l4604 11C4                                    i2l4278 1328  
                                  i2l4462 18AE                                    i2l4526 0F5E  
                                  i2l4518 0F40                                    i2l4384 1C9C  
                                  i2l4720 1FD0                                    i2l3914 1956  
                                  i2l4386 1CA2                                    i2l3842 13CA  
                                  i2l3834 13AE                                    i2l3850 13EA  
                                  i2l4298 1782                                    i2l4474 191C  
                                  i2l4618 11F2                                    i2l3852 13FC  
                                  i2l4476 1922                                    i2l4644 1252  
                                  i2l4580 1184                                    i2l3918 1960  
                                  i2l3782 20BE                                    i2l3790 1A30  
                                  i2l3862 142A                                    i2l4718 1F9C  
                                  i2l3950 2232                                    i2l4646 126E  
                                  i2l4638 1230                                    i2l4566 116C  
                                  i2l4558 1160                                    i2l3928 1996  
                                  i2l3936 19D0                                    i2l3768 1E1A  
                                  i2l3872 1456                                    i2l3856 140E  
                                  i2l3938 19D6                                    i2l3946 1A10  
                                  i2l3778 20B0                                    i2l3866 1436  
                                  i2l3890 1F78                                    i2l3882 1F60  
                                  i2l3954 2242                                    i2l4498 0EF6  
                                  i2l4594 11B4                                    i2l3972 1BEE  
                                  i2l3892 1F7E                                    i2l3884 1F66  
                                  i2l4588 1190                                    i2l3798 1A5E  
                                  i2l3878 1462                                    i2l3886 1F6C  
                                  i2l3888 1F72                                    i2l3896 1F84  
                               ??_BusyADC 0090                  i2USBTransferOnePacket@ep 0016  
                       ??i2_USBDeviceInit 001A           __size_ofi2_USBTransferOnePacket 00CA  
                          __CFG_VREGEN$ON 000000                                 ??_OpenADC 0092  
                       _shortPacketStatus 0049                            __CFG_XINST$OFF 000000  
                         USBDeviceTasks@i 0081               __size_of_APP_CustomHIDTasks 01A8  
             USBStdFeatureReqHandler@pUEP 002B                  USBTransferOnePacket@data 0091  
              USBCtrlTrfInHandler@lastDTS 0013                           ??_USBDeviceInit 0098  
                          __CFG_STVREN$ON 000000                         _USBEnableEndpoint 20A0  
         __size_of_USBStdGetStatusHandler 00C6                                    _memset 2160  
                                  clear_0 2282                                    clear_1 228E  
                      ?_USBEnableEndpoint 001A                                 ??_initADC 0095  
           __size_of_USBTransferOnePacket 00F8                              __mediumconst 0000  
                                  tblptrh 000FF7                                    tblptrl 000FF6  
                                  tblptru 000FF8                       ??_USBEnableEndpoint 001B  
                             _CtrlTrfData 000428                               ?_ConvertADC 0001  
          __size_of_APP_USBCBErrorHandler 0002             __end_of_APP_USBCBErrorHandler 22EA  
                    _controlTransferState 0047                         _SYSTEM_Initialize 21CA  
               ??_APP_CustomHIDInitialize 0020                                __accesstop 0060  
                 __end_of__initialization 2294                           __CFG_PBADEN$OFF 000000  
                      ?_SYSTEM_Initialize 0001                  __size_of_USBStallHandler 003E  
                     __size_of_USBSuspend 0028                            __pcstackCOMRAM 0001  
               __end_of_USBEnableEndpoint 20E8                             __end_of_sd000 08E5  
                           __end_of_sd001 0889                             __end_of_sd002 0851  
                     ??_SYSTEM_Initialize 0095          __size_of_USBCtrlEPAllowDataStage 009E  
                         _active_protocol 004D             __size_of_USBConfigureEndpoint 009E  
             __end_of_USBCtrlTrfInHandler 1D14                    i2_USBTransferOnePacket 1A16  
                               ?i2_memset 0012                  ??_USBCtrlTrfSetupHandler 0032  
                        ?_USBDeviceAttach 0001                 __end_of_SYSTEM_Initialize 21FA  
                  _USBStdGetStatusHandler 1AE0                                __pbssBANK0 0060  
             __size_of_USBWakeFromSuspend 002E                               _pBDTEntryIn 0068  
        __end_of_USBCtrlEPServiceComplete 1766                      USBCtrlTrfRxService@i 0012  
               __size_of_APP_USBCBSuspend 0002                                   ?_memset 0090  
                              _device_dsc 08CF                       __size_of_ConvertADC 0004  
                        _USBCtrlEPService 1856                                _ep_data_in 0074  
             __end_of_USBCtrlTrfRxService 138C                        _USBCheckStdRequest 1766  
                       _configDescriptor1 0889                                ??i2_memset 0018  
             __end_of_USBCtrlTrfTxService 1A16                       _USBStdSetCfgHandler 1584  
              ??_APP_USBCBWakeFromSuspend 0012                       ?_USBCheckStdRequest 0001  
            __size_of_USBStdGetDscHandler 013E                                   _UIEbits 000F69  
                                 _UIRbits 000F68                         ?_SYS_InterruptLow 0001  
                                 _BusyADC 22D2            APP_LEDUpdateUSBStatus@ledCount 0034  
                      ??_SYS_InterruptLow 0001                                   _OpenADC 1EE2  
                                 __Hparam 0000                      ?_USBStdSetCfgHandler 0001  
             __size_of_USBCheckHIDRequest 0100                                   __Lparam 0000  
                       __end_of_hid_rpt01 08CF                __size_of_USBEnableEndpoint 0048  
                    ??_USBCheckStdRequest 0030             __size_of_USBCtrlTrfOutHandler 005A  
                        _ToSendDataBuffer 000540                          ??_USBDeviceTasks 0034  
                       ??_USBStallHandler 0012                              __psmallconst 0800  
                                 __pcinit 227C                           __size_of_memset 0038  
               __end_of_configDescriptor1 08B2                                   __ramtop 0800  
                                 __ptext0 229E                                   __ptext1 0D48  
                                 __ptext2 2198                                   __ptext3 21CA  
                                 __ptext4 22BE                                   __ptext5 1EE2  
                                 __ptext6 0BA0                                   __ptext7 2160  
                                 __ptext8 148C                                   __ptext9 22DE  
                                 _inPipes 007A               _USBDeferOUTDataStagePackets 0042  
                                 _initADC 22BE                              ??_USBSuspend 0028  
                         i2_USBDeviceInit 0EBA                     _APP_USBCB_SOF_Handler 22E2  
                        i2USBDeviceInit@i 001A                        __end_of_USB_CD_Ptr 0809  
                          OpenADC@config2 0090                __size_of_SYSTEM_Initialize 0030  
         __size_of_USBCtrlTrfSetupHandler 0092                            __pintcode_body 1FDA  
                    end_of_initialization 2294                        __end_of_USB_SD_Ptr 0807  
                     _pBDTEntryEP0OutNext 003A                                   memset@c 0092  
                                 memset@n 0094                                   memset@p 0096  
                           __Lmediumconst 0000                                   int_func 1FDA  
                ?_USBStdFeatureReqHandler 0001                     ??_USBStdSetCfgHandler 0028  
                      __end_of_USBSuspend 227C                   _USBCtrlEPAllowDataStage 1D14  
                                 postdec2 000FDD                                   postinc0 000FEE  
                                 postinc2 000FDE                  _USBCtrlEPServiceComplete 1676  
              _USBStatusStageEnabledFlag1 0044                _USBStatusStageEnabledFlag2 0045  
                      USBEnableEndpoint@p 001D                                 _PORTBbits 000F81  
                               _TRISAbits 000F92                                 _TRISBbits 000F93  
                      _ReceivedDataBuffer 000500                        _BothEP0OutUOWNsSet 003E  
               USBConfigureEndpoint@EPNum 0017                              ??_ConvertADC 0090  
              ?_USBCtrlEPAllowStatusStage 0001       USER_USB_CALLBACK_EVENT_HANDLER@size 0024  
                               _USTATcopy 004C              __end_of_USBTransferOnePacket 1584  
              __end_of_APP_CustomHIDTasks 0D48                          _APP_USBCBSuspend 22E6  
                  _USBCtrlTrfSetupHandler 1E50                   ?i2_USBTransferOnePacket 0012  
                   __end_of_USBDeviceInit 0EBA                               __doTransmit 0079  
                 __end_ofi2_USBDeviceInit 100A                        __end_of_ConvertADC 22E2  
                               i2memset@c 0014                                 i2memset@n 0016  
                               i2memset@p 0018                            __end_of_memset 2198  
                       _USBBusIsSuspended 0040                    ?_APP_USBCB_SOF_Handler 0001  
                     start_initialization 227C                   ?_USBStdGetStatusHandler 0001  
           USBCtrlTrfRxService@byteToRead 0013                         __size_ofi2_memset 002C  
            __end_of_USBConfigureEndpoint 1E50           __end_of_USBStdFeatureReqHandler 0BA0  
       __end_of_USBCtrlEPAllowStatusStage 1C6A                  __end_of_USBCtrlEPService 1936  
                   _APP_USBCBErrorHandler 22E8                 ??_USBCtrlEPAllowDataStage 0013  
                          USBDeviceInit@i 0098                    _pBDTEntryEP0OutCurrent 0038  
                 USBTransferOnePacket@dir 0090                   USBTransferOnePacket@len 0093  
          __end_ofi2_USBTransferOnePacket 1AE0                       _USBStdGetDscHandler 100A  
                        __CFG_LPT1OSC$OFF 000000                                  ??_memset 0096  
                  _USBActiveConfiguration 004A            __end_of_USBStdGetStatusHandler 1BA6  
                             __pbssCOMRAM 0034                             __pcstackBANK0 0080  
            __size_of_USBCtrlTrfInHandler 00AA                  ?_APP_CustomHIDInitialize 0001  
                    ?_USBStdGetDscHandler 0001                __end_of_USBWakeFromSuspend 2228  
                         _USBStallHandler 20E8                              _pBDTEntryOut 006C  
                                ?_BusyADC 0001                  __size_of_USBDeviceAttach 0032  
                       OpenADC@portconfig 0091                                  ?_OpenADC 0090  
                               __pintcode 0008                                 _hid_rpt01 08B2  
                             __pintcodelo 0018                 __size_of_SYS_InterruptLow 008A  
                               _idle_rate 004E                          ?i2_USBDeviceInit 0001  
              USBCBSendResume@delay_count 0036                                  ?_initADC 0001  
                    _USBTransferOnePacket 148C                               __smallconst 0800  
            __end_of_USBCtrlTrfOutHandler 20A0                     ??_USBStdGetDscHandler 0012  
                             _ep_data_out 0076              __size_of_USBCtrlTrfRxService 010E  
           USBConfigureEndpoint@direction 0012                    ?_APP_USBCBErrorHandler 0001  
            __size_of_USBCtrlTrfTxService 00E0                             OpenADC@config 0094  
                                _LATBbits 000F8A                __end_of_USBCheckHIDRequest 148C  
              ??_USBCtrlEPServiceComplete 0013                                  _IPR2bits 000FA2  
                                _PIE1bits 000F9D                                  _PIE2bits 000FA0  
       __size_of_APP_USBCBWakeFromSuspend 0002                                  i2u330_40 1A02  
                                i2u330_47 19F8                                  i2u328_40 19C2  
                                i2u344_40 108E                                  i2u328_47 19B8  
                                i2u344_47 1084                                  i2u345_40 10C2  
                                _PIR1bits 000F9E                                  i2u345_47 10B8  
                                i2u347_40 1118                                  _PIR2bits 000FA1  
                                i2u347_47 110E                 ?_APP_USBCBWakeFromSuspend 0001  
               USBCtrlEPService@setup_cnt 0080                                  _RCONbits 000FD0  
                        __CFG_WDTPS$32768 000000                                  _UEP0bits 000F70  
              _USBDeferINDataStagePackets 0041               __size_of_USBCheckStdRequest 00F0  
                                _UCONbits 000F6D                      _USBConfigureEndpoint 1DB2  
        __size_of_USBStdFeatureReqHandler 02BA                                _ADCON0bits 000FC2  
                   ?_USBTransferOnePacket 0090           __end_of_APP_CustomHIDInitialize 2160  
                       _SYS_InterruptHigh 0008                              _RemoteWakeup 003F  
                                i2_memset 2228                        ?_SYS_InterruptHigh 0001  
                __end_of_APP_USBCBSuspend 22E8                   __end_of_USBStallHandler 2126  
             ??_USBCtrlEPAllowStatusStage 0012               __end_of_USBStdSetCfgHandler 1676  
                     ??_SYS_InterruptHigh 0082                        __end_of_device_dsc 08E1  
                        __size_of_BusyADC 000C                   ?_USBCtrlTrfSetupHandler 0001  
                 USBStdGetStatusHandler@p 0013                                  __Hrparam 0000  
                        __size_of_OpenADC 007C                                  __Lrparam 0000  
                  USBTransferOnePacket@ep 0094                                  _SetupPkt 000420  
                   ?_USBConfigureEndpoint 0012                         ??_USBDeviceAttach 0090  
                 ??_APP_USBCB_SOF_Handler 0012                 __end_of_SYS_InterruptHigh 2046  
                      _APP_CustomHIDTasks 0BA0                          __size_of_initADC 0014  
                 __size_of_USBDeviceTasks 0136                       ?_APP_CustomHIDTasks 0001  
                                __ptext10 22D2                                  __ptext20 1676  
                                __ptext21 1D14                                  __ptext13 1148  
                                __ptext30 22E2                                  __ptext22 1766  
                                __ptext14 0EBA                                  __ptext31 22E4  
                                __ptext23 1584                                  __ptext15 21FA  
                                __ptext40 1BA6                                  __ptext32 22E6  
                                __ptext24 2228                                  __ptext16 2254  
                                __ptext41 1C6A                                  __ptext33 22E8  
                                __ptext25 1AE0                                  __ptext17 20E8  
                                __ptext42 1936                                  __ptext34 2126  
                                __ptext26 100A                                  __ptext18 1856  
                                __ptext35 1A16                                  __ptext27 08E6  
                                __ptext19 1E50                                  __ptext36 20A0  
                                __ptext28 1F5E                                  __ptext37 1DB2  
                                __ptext29 138C                                  __ptext38 2046  
                                __ptext39 127E            __end_of_USBCtrlTrfSetupHandler 1EE2  
                           __size_of_main 0020                         ?_USBCtrlEPService 0001  
                      ??_USBCtrlEPService 0032                       _USBCtrlTrfInHandler 1C6A  
                    ??_APP_CustomHIDTasks 0098                                  _outPipes 0060  
                    _USBCtrlTrfOutHandler 2046                 _USBCtrlEPAllowStatusStage 1BA6  
                        _SYS_InterruptLow 0018                    ??_USBTransferOnePacket 0094  
                   __CFG_CPUDIV$OSC1_PLL2 000000                 _USBDeferStatusStagePacket 0043  
                              _INTCONbits 000FF2                      ?_USBCtrlTrfInHandler 0001  
           USBCtrlTrfTxService@byteToSend 0012                                  memset@p1 0090  
                        ?_USBStallHandler 0001                  USBStdFeatureReqHandler@p 002E  
                                intlevel1 0000                                  intlevel2 0000  
                  __size_of_USBDeviceInit 0172   __end_of_USER_USB_CALLBACK_EVENT_HANDLER 1FDA  
__size_of_USER_USB_CALLBACK_EVENT_HANDLER 007C         ??_USER_USB_CALLBACK_EVENT_HANDLER 0026  
        ?_USER_USB_CALLBACK_EVENT_HANDLER 0020           _USER_USB_CALLBACK_EVENT_HANDLER 1F5E  
            i2USBTransferOnePacket@handle 0017          __size_of_APP_CustomHIDInitialize 003A  
              i2USBTransferOnePacket@data 0013                    ??_USBConfigureEndpoint 0013  
                   ?_USBCtrlTrfOutHandler 0001                       _USBCtrlTrfRxService 127E  
                      _USBWakeFromSuspend 21FA                   _USBStdFeatureReqHandler 08E6  
                     _USBCtrlTrfTxService 1936                __size_of_SYS_InterruptHigh 203E  
                     ?_USBWakeFromSuspend 0001                     ??_USBCtrlTrfInHandler 0013  
                   _USBAlternateInterface 004B                 i2USBTransferOnePacket@dir 0012  
               i2USBTransferOnePacket@len 0015                       USBEnableEndpoint@ep 001F  
                         _endpoint_number 0048                   ??_APP_USBCBErrorHandler 0012  
        __end_of_APP_USBCBWakeFromSuspend 22E6                      ?_USBCtrlTrfRxService 0001  
                ?_USBCtrlEPAllowDataStage 0001                      ?_USBCtrlTrfTxService 0001  
            _USBStatusStageTimeoutCounter 0046                      ??_USBWakeFromSuspend 0028  
              USBTransferOnePacket@handle 0095                                _USB_CD_Ptr 0807  
                             _USBInHandle 0070  
